(lp0
(lp1
S'2017-04-15'
p2
aF0.45255474452554745
aF1.2156862745098038
aa(lp3
S'2017-04-14'
p4
aF0.5625
aF1.9722222222222223
aa(lp5
S'2017-04-17'
p6
aF0.36054421768707484
aF1.3958333333333333
aa(lp7
S'2017-04-16'
p8
aF0.3157894736842105
aF1.7173913043478262
aa(lp9
S'2017-04-11'
p10
aF0.42105263157894735
aF1.125
aa(lp11
S'2017-04-10'
p12
aF0.36054421768707484
aF1.0149253731343284
aa(lp13
S'2017-04-13'
p14
aF0.40559440559440557
aF1.7222222222222223
aa(lp15
S'2017-04-12'
p16
aF0.4172661870503597
aF2.3529411764705883
aa(lp17
S'2017-04-19'
p18
aF0.5748031496062992
aF1.641025641025641
aa(lp19
S'2017-04-18'
p20
aF0.35135135135135137
aF1.6842105263157894
aa(lp21
S'2017-04-08'
p22
aF0.4014084507042254
aF1.6304347826086956
aa(lp23
S'2017-04-09'
p24
aF0.5285714285714286
aF2.227272727272727
aa(lp25
S'2017-04-07'
p26
aF2.0
aF2.0
aa(lp27
S'2017-04-20'
p28
aF0.3698630136986301
aF2.1515151515151514
aa(lp29
S'2017-04-21'
p30
aF0.3986013986013986
aF1.2321428571428572
aa(lp31
S'2017-04-22'
p32
aF0.33557046979865773
aF2.2222222222222223
aa.