(dp0
S'2017-04-15'
p1
(lp2
F0.45255474452554745
aF1.2156862745098038
asS'2017-04-14'
p3
(lp4
F0.5625
aF1.9722222222222223
asS'2017-04-17'
p5
(lp6
F0.36054421768707484
aF1.3958333333333333
asS'2017-04-16'
p7
(lp8
F0.3157894736842105
aF1.7173913043478262
asS'2017-04-11'
p9
(lp10
F0.42105263157894735
aF1.125
asS'2017-04-10'
p11
(lp12
F0.36054421768707484
aF1.0149253731343284
asS'2017-04-13'
p13
(lp14
F0.40559440559440557
aF1.7222222222222223
asS'2017-04-12'
p15
(lp16
F0.4172661870503597
aF2.3529411764705883
asS'2017-04-19'
p17
(lp18
F0.5748031496062992
aF1.641025641025641
asS'2017-04-18'
p19
(lp20
F0.35135135135135137
aF1.6842105263157894
asS'2017-04-08'
p21
(lp22
F0.4014084507042254
aF1.6304347826086956
asS'2017-04-09'
p23
(lp24
F0.5285714285714286
aF2.227272727272727
asS'2017-04-21'
p25
(lp26
F0.3986013986013986
aF1.2321428571428572
asS'2017-04-20'
p27
(lp28
F0.3698630136986301
aF2.1515151515151514
asS'2017-04-07'
p29
(lp30
F2.0
aF2.0
asS'2017-04-22'
p31
(lp32
F0.33557046979865773
aF2.2222222222222223
as.