(dp0
S'2017-04-15'
p1
(lp2
I62
aI137
aI62
aI51
asS'2017-04-14'
p3
(lp4
I72
aI128
aI71
aI36
asS'2017-04-17'
p5
(lp6
I53
aI147
aI67
aI48
asS'2017-04-16'
p7
(lp8
I48
aI152
aI79
aI46
asS'2017-04-11'
p9
(lp10
I56
aI133
aI63
aI56
asS'2017-04-10'
p11
(lp12
I53
aI147
aI68
aI67
asS'2017-04-13'
p13
(lp14
I58
aI143
aI62
aI36
asS'2017-04-12'
p15
(lp16
I58
aI139
aI80
aI34
asS'2017-04-19'
p17
(lp18
I73
aI127
aI64
aI39
asS'2017-04-18'
p19
(lp20
I52
aI148
aI64
aI38
asS'2017-04-08'
p21
(lp22
I57
aI142
aI75
aI46
asS'2017-04-09'
p23
(lp24
I74
aI140
aI98
aI44
asS'2017-04-21'
p25
(lp26
I57
aI143
aI69
aI56
asS'2017-04-20'
p27
(lp28
I54
aI146
aI71
aI33
asS'2017-04-07'
p29
(lp30
I2
aI0
aI2
aI0
asS'2017-04-22'
p31
(lp32
I50
aI149
aI80
aI36
as.