(lp0
(lp1
S'2017-04-15'
p2
aI62
aI137
aI62
aI51
aa(lp3
S'2017-04-14'
p4
aI72
aI128
aI71
aI36
aa(lp5
S'2017-04-17'
p6
aI53
aI147
aI67
aI48
aa(lp7
S'2017-04-16'
p8
aI48
aI152
aI79
aI46
aa(lp9
S'2017-04-11'
p10
aI56
aI133
aI63
aI56
aa(lp11
S'2017-04-10'
p12
aI53
aI147
aI68
aI67
aa(lp13
S'2017-04-13'
p14
aI58
aI143
aI62
aI36
aa(lp15
S'2017-04-12'
p16
aI58
aI139
aI80
aI34
aa(lp17
S'2017-04-19'
p18
aI73
aI127
aI64
aI39
aa(lp19
S'2017-04-18'
p20
aI52
aI148
aI64
aI38
aa(lp21
S'2017-04-08'
p22
aI57
aI142
aI75
aI46
aa(lp23
S'2017-04-09'
p24
aI74
aI140
aI98
aI44
aa(lp25
S'2017-04-07'
p26
aI2
aI0
aI2
aI0
aa(lp27
S'2017-04-20'
p28
aI54
aI146
aI71
aI33
aa(lp29
S'2017-04-21'
p30
aI57
aI143
aI69
aI56
aa(lp31
S'2017-04-22'
p32
aI50
aI149
aI80
aI36
aa.