ccopy_reg
_reconstructor
p0
(cnltk.classify.naivebayes
NaiveBayesClassifier
p1
c__builtin__
object
p2
Ntp3
Rp4
(dp5
S'_labels'
p6
(lp7
S'neg'
p8
aS'pos'
p9
asS'_feature_probdist'
p10
(dp11
(g9
S'contains(too)'
p12
tp13
g0
(cnltk.probability
ELEProbDist
p14
g2
Ntp15
Rp16
(dp17
S'_gamma'
p18
F0.5
sS'_N'
p19
I375003
sS'_freqdist'
p20
cnltk.probability
FreqDist
p21
((dp22
I00
I368399
sI01
I6604
stp23
Rp24
sS'_bins'
p25
I2
sS'_divisor'
p26
F375004.0
sbs(g8
S'contains(off)'
p27
tp28
g0
(g14
g2
Ntp29
Rp30
(dp31
g18
F0.5
sg19
I375004
sg20
g21
((dp32
I00
I368578
sI01
I6426
stp33
Rp34
sg25
I2
sg26
F375005.0
sbs(g8
S'contains(did)'
p35
tp36
g0
(g14
g2
Ntp37
Rp38
(dp39
g18
F0.5
sg19
I375004
sg20
g21
((dp40
I00
I370197
sI01
I4807
stp41
Rp42
sg25
I2
sg26
F375005.0
sbs(g8
S'contains(had)'
p43
tp44
g0
(g14
g2
Ntp45
Rp46
(dp47
g18
F0.5
sg19
I375004
sg20
g21
((dp48
I00
I364689
sI01
I10315
stp49
Rp50
sg25
I2
sg26
F375005.0
sbs(g9
S'contains(they)'
p51
tp52
g0
(g14
g2
Ntp53
Rp54
(dp55
g18
F0.5
sg19
I375003
sg20
g21
((dp56
I00
I370114
sI01
I4889
stp57
Rp58
sg25
I2
sg26
F375004.0
sbs(g9
S'contains(twitter)'
p59
tp60
g0
(g14
g2
Ntp61
Rp62
(dp63
g18
F0.5
sg19
I375003
sg20
g21
((dp64
I00
I369596
sI01
I5407
stp65
Rp66
sg25
I2
sg26
F375004.0
sbs(g9
S'contains(to)'
p67
tp68
g0
(g14
g2
Ntp69
Rp70
(dp71
g18
F0.5
sg19
I375003
sg20
g21
((dp72
I00
I294304
sI01
I80699
stp73
Rp74
sg25
I2
sg26
F375004.0
sbs(g8
S'contains(on)'
p75
tp76
g0
(g14
g2
Ntp77
Rp78
(dp79
g18
F0.5
sg19
I375004
sg20
g21
((dp80
I00
I344709
sI01
I30295
stp81
Rp82
sg25
I2
sg26
F375005.0
sbs(g9
S'contains(for)'
p83
tp84
g0
(g14
g2
Ntp85
Rp86
(dp87
g18
F0.5
sg19
I375003
sg20
g21
((dp88
I00
I332981
sI01
I42022
stp89
Rp90
sg25
I2
sg26
F375004.0
sbs(g9
S'contains(up)'
p91
tp92
g0
(g14
g2
Ntp93
Rp94
(dp95
g18
F0.5
sg19
I375003
sg20
g21
((dp96
I00
I362479
sI01
I12524
stp97
Rp98
sg25
I2
sg26
F375004.0
sbs(g8
S'contains(for)'
p99
tp100
g0
(g14
g2
Ntp101
Rp102
(dp103
g18
F0.5
sg19
I375004
sg20
g21
((dp104
I00
I338896
sI01
I36108
stp105
Rp106
sg25
I2
sg26
F375005.0
sbs(g8
S"contains(don't)"
p107
tp108
g0
(g14
g2
Ntp109
Rp110
(dp111
g18
F0.5
sg19
I375004
sg20
g21
((dp112
I00
I362973
sI01
I12031
stp113
Rp114
sg25
I2
sg26
F375005.0
sbs(g8
S'contains(some)'
p115
tp116
g0
(g14
g2
Ntp117
Rp118
(dp119
g18
F0.5
sg19
I375004
sg20
g21
((dp120
I00
I367924
sI01
I7080
stp121
Rp122
sg25
I2
sg26
F375005.0
sbs(g8
S'contains(think)'
p123
tp124
g0
(g14
g2
Ntp125
Rp126
(dp127
g18
F0.5
sg19
I375004
sg20
g21
((dp128
I00
I366870
sI01
I8134
stp129
Rp130
sg25
I2
sg26
F375005.0
sbs(g9
S'contains(only)'
p131
tp132
g0
(g14
g2
Ntp133
Rp134
(dp135
g18
F0.5
sg19
I375003
sg20
g21
((dp136
I00
I371397
sI01
I3606
stp137
Rp138
sg25
I2
sg26
F375004.0
sbs(g8
S'contains(love)'
p139
tp140
g0
(g14
g2
Ntp141
Rp142
(dp143
g18
F0.5
sg19
I375004
sg20
g21
((dp144
I00
I368938
sI01
I6066
stp145
Rp146
sg25
I2
sg26
F375005.0
sbs(g9
S'contains(day)'
p147
tp148
g0
(g14
g2
Ntp149
Rp150
(dp151
g18
F0.5
sg19
I375003
sg20
g21
((dp152
I00
I362537
sI01
I12466
stp153
Rp154
sg25
I2
sg26
F375004.0
sbs(g9
S'contains(gonna)'
p155
tp156
g0
(g14
g2
Ntp157
Rp158
(dp159
g18
F0.5
sg19
I375003
sg20
g21
((dp160
I00
I371121
sI01
I3882
stp161
Rp162
sg25
I2
sg26
F375004.0
sbs(g8
S'contains(sad)'
p163
tp164
g0
(g14
g2
Ntp165
Rp166
(dp167
g18
F0.5
sg19
I375004
sg20
g21
((dp168
I00
I366735
sI01
I8269
stp169
Rp170
sg25
I2
sg26
F375005.0
sbs(g8
S"contains(that's)"
p171
tp172
g0
(g14
g2
Ntp173
Rp174
(dp175
g18
F0.5
sg19
I375004
sg20
g21
((dp176
I00
I371635
sI01
I3369
stp177
Rp178
sg25
I2
sg26
F375005.0
sbs(g9
S'contains(work)'
p179
tp180
g0
(g14
g2
Ntp181
Rp182
(dp183
g18
F0.5
sg19
I375003
sg20
g21
((dp184
I00
I369668
sI01
I5335
stp185
Rp186
sg25
I2
sg26
F375004.0
sbs(g8
S'contains(miss)'
p187
tp188
g0
(g14
g2
Ntp189
Rp190
(dp191
g18
F0.5
sg19
I375004
sg20
g21
((dp192
I00
I363079
sI01
I11925
stp193
Rp194
sg25
I2
sg26
F375005.0
sbs(g8
S'contains(see)'
p195
tp196
g0
(g14
g2
Ntp197
Rp198
(dp199
g18
F0.5
sg19
I375004
sg20
g21
((dp200
I00
I367292
sI01
I7712
stp201
Rp202
sg25
I2
sg26
F375005.0
sbs(g9
S'contains(had)'
p203
tp204
g0
(g14
g2
Ntp205
Rp206
(dp207
g18
F0.5
sg19
I375003
sg20
g21
((dp208
I00
I367514
sI01
I7489
stp209
Rp210
sg25
I2
sg26
F375004.0
sbs(g8
S'contains(have)'
p211
tp212
g0
(g14
g2
Ntp213
Rp214
(dp215
g18
F0.5
sg19
I375004
sg20
g21
((dp216
I00
I345027
sI01
I29977
stp217
Rp218
sg25
I2
sg26
F375005.0
sbs(g9
S'contains(now)'
p219
tp220
g0
(g14
g2
Ntp221
Rp222
(dp223
g18
F0.5
sg19
I375003
sg20
g21
((dp224
I00
I364491
sI01
I10512
stp225
Rp226
sg25
I2
sg26
F375004.0
sbs(g8
S'contains(from)'
p227
tp228
g0
(g14
g2
Ntp229
Rp230
(dp231
g18
F0.5
sg19
I375004
sg20
g21
((dp232
I00
I363939
sI01
I11065
stp233
Rp234
sg25
I2
sg26
F375005.0
sbs(g8
S'contains(go)'
p235
tp236
g0
(g14
g2
Ntp237
Rp238
(dp239
g18
F0.5
sg19
I375004
sg20
g21
((dp240
I00
I359103
sI01
I15901
stp241
Rp242
sg25
I2
sg26
F375005.0
sbs(g9
S"contains(i'm)"
p243
tp244
g0
(g14
g2
Ntp245
Rp246
(dp247
g18
F0.5
sg19
I375003
sg20
g21
((dp248
I00
I356186
sI01
I18817
stp249
Rp250
sg25
I2
sg26
F375004.0
sbs(g8
S'contains(&amp;)'
p251
tp252
g0
(g14
g2
Ntp253
Rp254
(dp255
g18
F0.5
sg19
I375004
sg20
g21
((dp256
I00
I368897
sI01
I6107
stp257
Rp258
sg25
I2
sg26
F375005.0
sbs(g8
S'contains(not)'
p259
tp260
g0
(g14
g2
Ntp261
Rp262
(dp263
g18
F0.5
sg19
I375004
sg20
g21
((dp264
I00
I348755
sI01
I26249
stp265
Rp266
sg25
I2
sg26
F375005.0
sbs(g9
S'contains(love)'
p267
tp268
g0
(g14
g2
Ntp269
Rp270
(dp271
g18
F0.5
sg19
I375003
sg20
g21
((dp272
I00
I358195
sI01
I16808
stp273
Rp274
sg25
I2
sg26
F375004.0
sbs(g9
S'contains(what)'
p275
tp276
g0
(g14
g2
Ntp277
Rp278
(dp279
g18
F0.5
sg19
I375003
sg20
g21
((dp280
I00
I365801
sI01
I9202
stp281
Rp282
sg25
I2
sg26
F375004.0
sbs(g9
S'contains(today)'
p283
tp284
g0
(g14
g2
Ntp285
Rp286
(dp287
g18
F0.5
sg19
I375003
sg20
g21
((dp288
I00
I368409
sI01
I6594
stp289
Rp290
sg25
I2
sg26
F375004.0
sbs(g9
S'contains(am)'
p291
tp292
g0
(g14
g2
Ntp293
Rp294
(dp295
g18
F0.5
sg19
I375003
sg20
g21
((dp296
I00
I367637
sI01
I7366
stp297
Rp298
sg25
I2
sg26
F375004.0
sbs(g9
S'contains(here)'
p299
tp300
g0
(g14
g2
Ntp301
Rp302
(dp303
g18
F0.5
sg19
I375003
sg20
g21
((dp304
I00
I370216
sI01
I4787
stp305
Rp306
sg25
I2
sg26
F375004.0
sbs(g9
S'contains(&amp;)'
p307
tp308
g0
(g14
g2
Ntp309
Rp310
(dp311
g18
F0.5
sg19
I375003
sg20
g21
((dp312
I00
I368183
sI01
I6820
stp313
Rp314
sg25
I2
sg26
F375004.0
sbs(g8
S'contains(he)'
p315
tp316
g0
(g14
g2
Ntp317
Rp318
(dp319
g18
F0.5
sg19
I375004
sg20
g21
((dp320
I00
I369784
sI01
I5220
stp321
Rp322
sg25
I2
sg26
F375005.0
sbs(g9
S'contains(come)'
p323
tp324
g0
(g14
g2
Ntp325
Rp326
(dp327
g18
F0.5
sg19
I375003
sg20
g21
((dp328
I00
I370791
sI01
I4212
stp329
Rp330
sg25
I2
sg26
F375004.0
sbs(g9
S'contains(how)'
p331
tp332
g0
(g14
g2
Ntp333
Rp334
(dp335
g18
F0.5
sg19
I375003
sg20
g21
((dp336
I00
I366946
sI01
I8057
stp337
Rp338
sg25
I2
sg26
F375004.0
sbs(g8
S'contains(as)'
p339
tp340
g0
(g14
g2
Ntp341
Rp342
(dp343
g18
F0.5
sg19
I375004
sg20
g21
((dp344
I00
I369501
sI01
I5503
stp345
Rp346
sg25
I2
sg26
F375005.0
sbs(g8
S'contains(got)'
p347
tp348
g0
(g14
g2
Ntp349
Rp350
(dp351
g18
F0.5
sg19
I375004
sg20
g21
((dp352
I00
I362389
sI01
I12615
stp353
Rp354
sg25
I2
sg26
F375005.0
sbs(g8
S'contains(should)'
p355
tp356
g0
(g14
g2
Ntp357
Rp358
(dp359
g18
F0.5
sg19
I375004
sg20
g21
((dp360
I00
I371510
sI01
I3494
stp361
Rp362
sg25
I2
sg26
F375005.0
sbs(g9
S'contains(need)'
p363
tp364
g0
(g14
g2
Ntp365
Rp366
(dp367
g18
F0.5
sg19
I375003
sg20
g21
((dp368
I00
I370273
sI01
I4730
stp369
Rp370
sg25
I2
sg26
F375004.0
sbs(g9
S'contains(about)'
p371
tp372
g0
(g14
g2
Ntp373
Rp374
(dp375
g18
F0.5
sg19
I375003
sg20
g21
((dp376
I00
I366223
sI01
I8780
stp377
Rp378
sg25
I2
sg26
F375004.0
sbs(g8
S'contains(need)'
p379
tp380
g0
(g14
g2
Ntp381
Rp382
(dp383
g18
F0.5
sg19
I375004
sg20
g21
((dp384
I00
I366606
sI01
I8398
stp385
Rp386
sg25
I2
sg26
F375005.0
sbs(g8
S'contains(it)'
p387
tp388
g0
(g14
g2
Ntp389
Rp390
(dp391
g18
F0.5
sg19
I375004
sg20
g21
((dp392
I00
I339882
sI01
I35122
stp393
Rp394
sg25
I2
sg26
F375005.0
sbs(g9
S'contains(the)'
p395
tp396
g0
(g14
g2
Ntp397
Rp398
(dp399
g18
F0.5
sg19
I375003
sg20
g21
((dp400
I00
I290443
sI01
I84560
stp401
Rp402
sg25
I2
sg26
F375004.0
sbs(g8
S"contains(it's)"
p403
tp404
g0
(g14
g2
Ntp405
Rp406
(dp407
g18
F0.5
sg19
I375004
sg20
g21
((dp408
I00
I363445
sI01
I11559
stp409
Rp410
sg25
I2
sg26
F375005.0
sbs(g8
S'contains(the)'
p411
tp412
g0
(g14
g2
Ntp413
Rp414
(dp415
g18
F0.5
sg19
I375004
sg20
g21
((dp416
I00
I291786
sI01
I83218
stp417
Rp418
sg25
I2
sg26
F375005.0
sbs(g8
S'contains(great)'
p419
tp420
g0
(g14
g2
Ntp421
Rp422
(dp423
g18
F0.5
sg19
I375004
sg20
g21
((dp424
I00
I372561
sI01
I2443
stp425
Rp426
sg25
I2
sg26
F375005.0
sbs(g8
S"contains(i'm)"
p427
tp428
g0
(g14
g2
Ntp429
Rp430
(dp431
g18
F0.5
sg19
I375004
sg20
g21
((dp432
I00
I349164
sI01
I25840
stp433
Rp434
sg25
I2
sg26
F375005.0
sbs(g9
S'contains(and)'
p435
tp436
g0
(g14
g2
Ntp437
Rp438
(dp439
g18
F0.5
sg19
I375003
sg20
g21
((dp440
I00
I328936
sI01
I46067
stp441
Rp442
sg25
I2
sg26
F375004.0
sbs(g8
S'contains(time)'
p443
tp444
g0
(g14
g2
Ntp445
Rp446
(dp447
g18
F0.5
sg19
I375004
sg20
g21
((dp448
I00
I367038
sI01
I7966
stp449
Rp450
sg25
I2
sg26
F375005.0
sbs(g9
S'contains(time)'
p451
tp452
g0
(g14
g2
Ntp453
Rp454
(dp455
g18
F0.5
sg19
I375003
sg20
g21
((dp456
I00
I366627
sI01
I8376
stp457
Rp458
sg25
I2
sg26
F375004.0
sbs(g9
S'contains(when)'
p459
tp460
g0
(g14
g2
Ntp461
Rp462
(dp463
g18
F0.5
sg19
I375003
sg20
g21
((dp464
I00
I368806
sI01
I6197
stp465
Rp466
sg25
I2
sg26
F375004.0
sbs(g9
S'contains(her)'
p467
tp468
g0
(g14
g2
Ntp469
Rp470
(dp471
g18
F0.5
sg19
I375003
sg20
g21
((dp472
I00
I370748
sI01
I4255
stp473
Rp474
sg25
I2
sg26
F375004.0
sbs(g9
S'contains(off)'
p475
tp476
g0
(g14
g2
Ntp477
Rp478
(dp479
g18
F0.5
sg19
I375003
sg20
g21
((dp480
I00
I369427
sI01
I5576
stp481
Rp482
sg25
I2
sg26
F375004.0
sbs(g9
S'contains(this)'
p483
tp484
g0
(g14
g2
Ntp485
Rp486
(dp487
g18
F0.5
sg19
I375003
sg20
g21
((dp488
I00
I360633
sI01
I14370
stp489
Rp490
sg25
I2
sg26
F375004.0
sbs(g9
S'contains(know)'
p491
tp492
g0
(g14
g2
Ntp493
Rp494
(dp495
g18
F0.5
sg19
I375003
sg20
g21
((dp496
I00
I366602
sI01
I8401
stp497
Rp498
sg25
I2
sg26
F375004.0
sbs(g8
S'contains(there)'
p499
tp500
g0
(g14
g2
Ntp501
Rp502
(dp503
g18
F0.5
sg19
I375004
sg20
g21
((dp504
I00
I368792
sI01
I6212
stp505
Rp506
sg25
I2
sg26
F375005.0
sbs(g9
S'contains(should)'
p507
tp508
g0
(g14
g2
Ntp509
Rp510
(dp511
g18
F0.5
sg19
I375003
sg20
g21
((dp512
I00
I370306
sI01
I4697
stp513
Rp514
sg25
I2
sg26
F375004.0
sbs(g9
S'contains(more)'
p515
tp516
g0
(g14
g2
Ntp517
Rp518
(dp519
g18
F0.5
sg19
I375003
sg20
g21
((dp520
I00
I368831
sI01
I6172
stp521
Rp522
sg25
I2
sg26
F375004.0
sbs(g9
S'contains(it)'
p523
tp524
g0
(g14
g2
Ntp525
Rp526
(dp527
g18
F0.5
sg19
I375003
sg20
g21
((dp528
I00
I344252
sI01
I30751
stp529
Rp530
sg25
I2
sg26
F375004.0
sbs(g9
S'contains(you)'
p531
tp532
g0
(g14
g2
Ntp533
Rp534
(dp535
g18
F0.5
sg19
I375003
sg20
g21
((dp536
I00
I321800
sI01
I53203
stp537
Rp538
sg25
I2
sg26
F375004.0
sbs(g8
S'contains(an)'
p539
tp540
g0
(g14
g2
Ntp541
Rp542
(dp543
g18
F0.5
sg19
I375004
sg20
g21
((dp544
I00
I368196
sI01
I6808
stp545
Rp546
sg25
I2
sg26
F375005.0
sbs(g9
S'contains(miss)'
p547
tp548
g0
(g14
g2
Ntp549
Rp550
(dp551
g18
F0.5
sg19
I375003
sg20
g21
((dp552
I00
I372934
sI01
I2069
stp553
Rp554
sg25
I2
sg26
F375004.0
sbs(g9
S'contains(that)'
p555
tp556
g0
(g14
g2
Ntp557
Rp558
(dp559
g18
F0.5
sg19
I375003
sg20
g21
((dp560
I00
I352115
sI01
I22888
stp561
Rp562
sg25
I2
sg26
F375004.0
sbs(g9
S'contains(there)'
p563
tp564
g0
(g14
g2
Ntp565
Rp566
(dp567
g18
F0.5
sg19
I375003
sg20
g21
((dp568
I00
I369990
sI01
I5013
stp569
Rp570
sg25
I2
sg26
F375004.0
sbs(g8
S'contains(just)'
p571
tp572
g0
(g14
g2
Ntp573
Rp574
(dp575
g18
F0.5
sg19
I375004
sg20
g21
((dp576
I00
I351448
sI01
I23556
stp577
Rp578
sg25
I2
sg26
F375005.0
sbs(g8
S'contains(no)'
p579
tp580
g0
(g14
g2
Ntp581
Rp582
(dp583
g18
F0.5
sg19
I375004
sg20
g21
((dp584
I00
I357331
sI01
I17673
stp585
Rp586
sg25
I2
sg26
F375005.0
sbs(g9
S'contains(sorry)'
p587
tp588
g0
(g14
g2
Ntp589
Rp590
(dp591
g18
F0.5
sg19
I375003
sg20
g21
((dp592
I00
I373408
sI01
I1595
stp593
Rp594
sg25
I2
sg26
F375004.0
sbs(g9
S'contains(are)'
p595
tp596
g0
(g14
g2
Ntp597
Rp598
(dp599
g18
F0.5
sg19
I375003
sg20
g21
((dp600
I00
I358830
sI01
I16173
stp601
Rp602
sg25
I2
sg26
F375004.0
sbs(g8
S'contains(still)'
p603
tp604
g0
(g14
g2
Ntp605
Rp606
(dp607
g18
F0.5
sg19
I375004
sg20
g21
((dp608
I00
I364805
sI01
I10199
stp609
Rp610
sg25
I2
sg26
F375005.0
sbs(g8
S'contains(my)'
p611
tp612
g0
(g14
g2
Ntp613
Rp614
(dp615
g18
F0.5
sg19
I375004
sg20
g21
((dp616
I00
I307929
sI01
I67075
stp617
Rp618
sg25
I2
sg26
F375005.0
sbs(g8
S'contains(do)'
p619
tp620
g0
(g14
g2
Ntp621
Rp622
(dp623
g18
F0.5
sg19
I375004
sg20
g21
((dp624
I00
I363318
sI01
I11686
stp625
Rp626
sg25
I2
sg26
F375005.0
sbs(g9
S'contains(very)'
p627
tp628
g0
(g14
g2
Ntp629
Rp630
(dp631
g18
F0.5
sg19
I375003
sg20
g21
((dp632
I00
I370128
sI01
I4875
stp633
Rp634
sg25
I2
sg26
F375004.0
sbs(g9
S'contains(thanks)'
p635
tp636
g0
(g14
g2
Ntp637
Rp638
(dp639
g18
F0.5
sg19
I375003
sg20
g21
((dp640
I00
I363714
sI01
I11289
stp641
Rp642
sg25
I2
sg26
F375004.0
sbs(g8
S'contains(good)'
p643
tp644
g0
(g14
g2
Ntp645
Rp646
(dp647
g18
F0.5
sg19
I375004
sg20
g21
((dp648
I00
I365584
sI01
I9420
stp649
Rp650
sg25
I2
sg26
F375005.0
sbs(g8
S'contains(will)'
p651
tp652
g0
(g14
g2
Ntp653
Rp654
(dp655
g18
F0.5
sg19
I375004
sg20
g21
((dp656
I00
I366910
sI01
I8094
stp657
Rp658
sg25
I2
sg26
F375005.0
sbs(g8
S'contains(thanks)'
p659
tp660
g0
(g14
g2
Ntp661
Rp662
(dp663
g18
F0.5
sg19
I375004
sg20
g21
((dp664
I00
I373185
sI01
I1819
stp665
Rp666
sg25
I2
sg26
F375005.0
sbs(g8
S'contains(but)'
p667
tp668
g0
(g14
g2
Ntp669
Rp670
(dp671
g18
F0.5
sg19
I375004
sg20
g21
((dp672
I00
I349837
sI01
I25167
stp673
Rp674
sg25
I2
sg26
F375005.0
sbs(g8
S'contains(was)'
p675
tp676
g0
(g14
g2
Ntp677
Rp678
(dp679
g18
F0.5
sg19
I375004
sg20
g21
((dp680
I00
I353842
sI01
I21162
stp681
Rp682
sg25
I2
sg26
F375005.0
sbs(g9
S'contains(no)'
p683
tp684
g0
(g14
g2
Ntp685
Rp686
(dp687
g18
F0.5
sg19
I375003
sg20
g21
((dp688
I00
I367756
sI01
I7247
stp689
Rp690
sg25
I2
sg26
F375004.0
sbs(g8
S'contains(today)'
p691
tp692
g0
(g14
g2
Ntp693
Rp694
(dp695
g18
F0.5
sg19
I375004
sg20
g21
((dp696
I00
I365457
sI01
I9547
stp697
Rp698
sg25
I2
sg26
F375005.0
sbs(g8
S'contains(u)'
p699
tp700
g0
(g14
g2
Ntp701
Rp702
(dp703
g18
F0.5
sg19
I375004
sg20
g21
((dp704
I00
I367490
sI01
I7514
stp705
Rp706
sg25
I2
sg26
F375005.0
sbs(g9
S'contains(be)'
p707
tp708
g0
(g14
g2
Ntp709
Rp710
(dp711
g18
F0.5
sg19
I375003
sg20
g21
((dp712
I00
I356408
sI01
I18595
stp713
Rp714
sg25
I2
sg26
F375004.0
sbs(g8
S'contains(am)'
p715
tp716
g0
(g14
g2
Ntp717
Rp718
(dp719
g18
F0.5
sg19
I375004
sg20
g21
((dp720
I00
I364611
sI01
I10393
stp721
Rp722
sg25
I2
sg26
F375005.0
sbs(g9
S'contains(its)'
p723
tp724
g0
(g14
g2
Ntp725
Rp726
(dp727
g18
F0.5
sg19
I375003
sg20
g21
((dp728
I00
I368422
sI01
I6581
stp729
Rp730
sg25
I2
sg26
F375004.0
sbs(g8
S'contains(bad)'
p731
tp732
g0
(g14
g2
Ntp733
Rp734
(dp735
g18
F0.5
sg19
I375004
sg20
g21
((dp736
I00
I367997
sI01
I7007
stp737
Rp738
sg25
I2
sg26
F375005.0
sbs(g9
S"contains(can't)"
p739
tp740
g0
(g14
g2
Ntp741
Rp742
(dp743
g18
F0.5
sg19
I375003
sg20
g21
((dp744
I00
I369886
sI01
I5117
stp745
Rp746
sg25
I2
sg26
F375004.0
sbs(g8
S'contains(-)'
p747
tp748
g0
(g14
g2
Ntp749
Rp750
(dp751
g18
F0.5
sg19
I375004
sg20
g21
((dp752
I00
I365274
sI01
I9730
stp753
Rp754
sg25
I2
sg26
F375005.0
sbs(g8
S'contains(its)'
p755
tp756
g0
(g14
g2
Ntp757
Rp758
(dp759
g18
F0.5
sg19
I375004
sg20
g21
((dp760
I00
I365894
sI01
I9110
stp761
Rp762
sg25
I2
sg26
F375005.0
sbs(g9
S'contains(want)'
p763
tp764
g0
(g14
g2
Ntp765
Rp766
(dp767
g18
F0.5
sg19
I375003
sg20
g21
((dp768
I00
I370577
sI01
I4426
stp769
Rp770
sg25
I2
sg26
F375004.0
sbs(g9
S'contains(getting)'
p771
tp772
g0
(g14
g2
Ntp773
Rp774
(dp775
g18
F0.5
sg19
I375003
sg20
g21
((dp776
I00
I370998
sI01
I4005
stp777
Rp778
sg25
I2
sg26
F375004.0
sbs(g9
S'contains(wish)'
p779
tp780
g0
(g14
g2
Ntp781
Rp782
(dp783
g18
F0.5
sg19
I375003
sg20
g21
((dp784
I00
I372897
sI01
I2106
stp785
Rp786
sg25
I2
sg26
F375004.0
sbs(g8
S'contains(why)'
p787
tp788
g0
(g14
g2
Ntp789
Rp790
(dp791
g18
F0.5
sg19
I375004
sg20
g21
((dp792
I00
I368172
sI01
I6832
stp793
Rp794
sg25
I2
sg26
F375005.0
sbs(g9
S'contains(would)'
p795
tp796
g0
(g14
g2
Ntp797
Rp798
(dp799
g18
F0.5
sg19
I375003
sg20
g21
((dp800
I00
I370352
sI01
I4651
stp801
Rp802
sg25
I2
sg26
F375004.0
sbs(g8
S"contains(can't)"
p803
tp804
g0
(g14
g2
Ntp805
Rp806
(dp807
g18
F0.5
sg19
I375004
sg20
g21
((dp808
I00
I363420
sI01
I11584
stp809
Rp810
sg25
I2
sg26
F375005.0
sbs(g8
S'contains(wish)'
p811
tp812
g0
(g14
g2
Ntp813
Rp814
(dp815
g18
F0.5
sg19
I375004
sg20
g21
((dp816
I00
I366055
sI01
I8949
stp817
Rp818
sg25
I2
sg26
F375005.0
sbs(g9
S'contains(think)'
p819
tp820
g0
(g14
g2
Ntp821
Rp822
(dp823
g18
F0.5
sg19
I375003
sg20
g21
((dp824
I00
I368106
sI01
I6897
stp825
Rp826
sg25
I2
sg26
F375004.0
sbs(g8
S'contains(would)'
p827
tp828
g0
(g14
g2
Ntp829
Rp830
(dp831
g18
F0.5
sg19
I375004
sg20
g21
((dp832
I00
I369925
sI01
I5079
stp833
Rp834
sg25
I2
sg26
F375005.0
sbs(g9
S'contains(still)'
p835
tp836
g0
(g14
g2
Ntp837
Rp838
(dp839
g18
F0.5
sg19
I375003
sg20
g21
((dp840
I00
I370272
sI01
I4731
stp841
Rp842
sg25
I2
sg26
F375004.0
sbs(g9
S"contains(i'll)"
p843
tp844
g0
(g14
g2
Ntp845
Rp846
(dp847
g18
F0.5
sg19
I375003
sg20
g21
((dp848
I00
I370065
sI01
I4938
stp849
Rp850
sg25
I2
sg26
F375004.0
sbs(g9
S'contains(do)'
p851
tp852
g0
(g14
g2
Ntp853
Rp854
(dp855
g18
F0.5
sg19
I375003
sg20
g21
((dp856
I00
I365061
sI01
I9942
stp857
Rp858
sg25
I2
sg26
F375004.0
sbs(g9
S'contains(make)'
p859
tp860
g0
(g14
g2
Ntp861
Rp862
(dp863
g18
F0.5
sg19
I375003
sg20
g21
((dp864
I00
I370591
sI01
I4412
stp865
Rp866
sg25
I2
sg26
F375004.0
sbs(g9
S'contains(sad)'
p867
tp868
g0
(g14
g2
Ntp869
Rp870
(dp871
g18
F0.5
sg19
I375003
sg20
g21
((dp872
I00
I374610
sI01
I393
stp873
Rp874
sg25
I2
sg26
F375004.0
sbs(g9
S'contains(home)'
p875
tp876
g0
(g14
g2
Ntp877
Rp878
(dp879
g18
F0.5
sg19
I375003
sg20
g21
((dp880
I00
I370342
sI01
I4661
stp881
Rp882
sg25
I2
sg26
F375004.0
sbs(g8
S'contains(we)'
p883
tp884
g0
(g14
g2
Ntp885
Rp886
(dp887
g18
F0.5
sg19
I375004
sg20
g21
((dp888
I00
I366832
sI01
I8172
stp889
Rp890
sg25
I2
sg26
F375005.0
sbs(g9
S'contains(if)'
p891
tp892
g0
(g14
g2
Ntp893
Rp894
(dp895
g18
F0.5
sg19
I375003
sg20
g21
((dp896
I00
I366487
sI01
I8516
stp897
Rp898
sg25
I2
sg26
F375004.0
sbs(g9
S'contains(will)'
p899
tp900
g0
(g14
g2
Ntp901
Rp902
(dp903
g18
F0.5
sg19
I375003
sg20
g21
((dp904
I00
I365156
sI01
I9847
stp905
Rp906
sg25
I2
sg26
F375004.0
sbs(g8
S'contains(hope)'
p907
tp908
g0
(g14
g2
Ntp909
Rp910
(dp911
g18
F0.5
sg19
I375004
sg20
g21
((dp912
I00
I369397
sI01
I5607
stp913
Rp914
sg25
I2
sg26
F375005.0
sbs(g9
S'contains(we)'
p915
tp916
g0
(g14
g2
Ntp917
Rp918
(dp919
g18
F0.5
sg19
I375003
sg20
g21
((dp920
I00
I365869
sI01
I9134
stp921
Rp922
sg25
I2
sg26
F375004.0
sbs(g8
S'contains(one)'
p923
tp924
g0
(g14
g2
Ntp925
Rp926
(dp927
g18
F0.5
sg19
I375004
sg20
g21
((dp928
I00
I366218
sI01
I8786
stp929
Rp930
sg25
I2
sg26
F375005.0
sbs(g8
S'contains(of)'
p931
tp932
g0
(g14
g2
Ntp933
Rp934
(dp935
g18
F0.5
sg19
I375004
sg20
g21
((dp936
I00
I341179
sI01
I33825
stp937
Rp938
sg25
I2
sg26
F375005.0
sbs(g9
S'contains(on)'
p939
tp940
g0
(g14
g2
Ntp941
Rp942
(dp943
g18
F0.5
sg19
I375003
sg20
g21
((dp944
I00
I345296
sI01
I29707
stp945
Rp946
sg25
I2
sg26
F375004.0
sbs(g8
S'contains(back)'
p947
tp948
g0
(g14
g2
Ntp949
Rp950
(dp951
g18
F0.5
sg19
I375004
sg20
g21
((dp952
I00
I364057
sI01
I10947
stp953
Rp954
sg25
I2
sg26
F375005.0
sbs(g9
S'contains(have)'
p955
tp956
g0
(g14
g2
Ntp957
Rp958
(dp959
g18
F0.5
sg19
I375003
sg20
g21
((dp960
I00
I352794
sI01
I22209
stp961
Rp962
sg25
I2
sg26
F375004.0
sbs(g9
S'contains(was)'
p963
tp964
g0
(g14
g2
Ntp965
Rp966
(dp967
g18
F0.5
sg19
I375003
sg20
g21
((dp968
I00
I359555
sI01
I15448
stp969
Rp970
sg25
I2
sg26
F375004.0
sbs(g8
S'contains(then)'
p971
tp972
g0
(g14
g2
Ntp973
Rp974
(dp975
g18
F0.5
sg19
I375004
sg20
g21
((dp976
I00
I370590
sI01
I4414
stp977
Rp978
sg25
I2
sg26
F375005.0
sbs(g9
S'contains(happy)'
p979
tp980
g0
(g14
g2
Ntp981
Rp982
(dp983
g18
F0.5
sg19
I375003
sg20
g21
((dp984
I00
I368137
sI01
I6866
stp985
Rp986
sg25
I2
sg26
F375004.0
sbs(g9
S'contains(then)'
p987
tp988
g0
(g14
g2
Ntp989
Rp990
(dp991
g18
F0.5
sg19
I375003
sg20
g21
((dp992
I00
I369887
sI01
I5116
stp993
Rp994
sg25
I2
sg26
F375004.0
sbs(g9
S'contains(not)'
p995
tp996
g0
(g14
g2
Ntp997
Rp998
(dp999
g18
F0.5
sg19
I375003
sg20
g21
((dp1000
I00
I364201
sI01
I10802
stp1001
Rp1002
sg25
I2
sg26
F375004.0
sbs(g8
S'contains(lol)'
p1003
tp1004
g0
(g14
g2
Ntp1005
Rp1006
(dp1007
g18
F0.5
sg19
I375004
sg20
g21
((dp1008
I00
I368254
sI01
I6750
stp1009
Rp1010
sg25
I2
sg26
F375005.0
sbs(g8
S'contains(night)'
p1011
tp1012
g0
(g14
g2
Ntp1013
Rp1014
(dp1015
g18
F0.5
sg19
I375004
sg20
g21
((dp1016
I00
I369602
sI01
I5402
stp1017
Rp1018
sg25
I2
sg26
F375005.0
sbs(g9
S'contains(like)'
p1019
tp1020
g0
(g14
g2
Ntp1021
Rp1022
(dp1023
g18
F0.5
sg19
I375003
sg20
g21
((dp1024
I00
I361700
sI01
I13303
stp1025
Rp1026
sg25
I2
sg26
F375004.0
sbs(g8
S'contains(what)'
p1027
tp1028
g0
(g14
g2
Ntp1029
Rp1030
(dp1031
g18
F0.5
sg19
I375004
sg20
g21
((dp1032
I00
I365961
sI01
I9043
stp1033
Rp1034
sg25
I2
sg26
F375005.0
sbs(g9
S'contains(night)'
p1035
tp1036
g0
(g14
g2
Ntp1037
Rp1038
(dp1039
g18
F0.5
sg19
I375003
sg20
g21
((dp1040
I00
I369103
sI01
I5900
stp1041
Rp1042
sg25
I2
sg26
F375004.0
sbs(g9
S'contains(some)'
p1043
tp1044
g0
(g14
g2
Ntp1045
Rp1046
(dp1047
g18
F0.5
sg19
I375003
sg20
g21
((dp1048
I00
I365638
sI01
I9365
stp1049
Rp1050
sg25
I2
sg26
F375004.0
sbs(g9
S'contains(can)'
p1051
tp1052
g0
(g14
g2
Ntp1053
Rp1054
(dp1055
g18
F0.5
sg19
I375003
sg20
g21
((dp1056
I00
I365656
sI01
I9347
stp1057
Rp1058
sg25
I2
sg26
F375004.0
sbs(g8
S'contains(me)'
p1059
tp1060
g0
(g14
g2
Ntp1061
Rp1062
(dp1063
g18
F0.5
sg19
I375004
sg20
g21
((dp1064
I00
I346722
sI01
I28282
stp1065
Rp1066
sg25
I2
sg26
F375005.0
sbs(g8
S'contains(can)'
p1067
tp1068
g0
(g14
g2
Ntp1069
Rp1070
(dp1071
g18
F0.5
sg19
I375004
sg20
g21
((dp1072
I00
I367597
sI01
I7407
stp1073
Rp1074
sg25
I2
sg26
F375005.0
sbs(g8
S'contains(gonna)'
p1075
tp1076
g0
(g14
g2
Ntp1077
Rp1078
(dp1079
g18
F0.5
sg19
I375004
sg20
g21
((dp1080
I00
I369970
sI01
I5034
stp1081
Rp1082
sg25
I2
sg26
F375005.0
sbs(g9
S'contains(morning)'
p1083
tp1084
g0
(g14
g2
Ntp1085
Rp1086
(dp1087
g18
F0.5
sg19
I375003
sg20
g21
((dp1088
I00
I369376
sI01
I5627
stp1089
Rp1090
sg25
I2
sg26
F375004.0
sbs(g8
S'contains(i)'
p1091
tp1092
g0
(g14
g2
Ntp1093
Rp1094
(dp1095
g18
F0.5
sg19
I375004
sg20
g21
((dp1096
I00
I239168
sI01
I135836
stp1097
Rp1098
sg25
I2
sg26
F375005.0
sbs(g8
S'contains(home)'
p1099
tp1100
g0
(g14
g2
Ntp1101
Rp1102
(dp1103
g18
F0.5
sg19
I375004
sg20
g21
((dp1104
I00
I367579
sI01
I7425
stp1105
Rp1106
sg25
I2
sg26
F375005.0
sbs(g9
S'contains(been)'
p1107
tp1108
g0
(g14
g2
Ntp1109
Rp1110
(dp1111
g18
F0.5
sg19
I375003
sg20
g21
((dp1112
I00
I370322
sI01
I4681
stp1113
Rp1114
sg25
I2
sg26
F375004.0
sbs(g9
S'contains(i)'
p1115
tp1116
g0
(g14
g2
Ntp1117
Rp1118
(dp1119
g18
F0.5
sg19
I375003
sg20
g21
((dp1120
I00
I287147
sI01
I87856
stp1121
Rp1122
sg25
I2
sg26
F375004.0
sbs(g8
S'contains(out)'
p1123
tp1124
g0
(g14
g2
Ntp1125
Rp1126
(dp1127
g18
F0.5
sg19
I375004
sg20
g21
((dp1128
I00
I360546
sI01
I14458
stp1129
Rp1130
sg25
I2
sg26
F375005.0
sbs(g9
S'contains(got)'
p1131
tp1132
g0
(g14
g2
Ntp1133
Rp1134
(dp1135
g18
F0.5
sg19
I375003
sg20
g21
((dp1136
I00
I364417
sI01
I10586
stp1137
Rp1138
sg25
I2
sg26
F375004.0
sbs(g9
S'contains(did)'
p1139
tp1140
g0
(g14
g2
Ntp1141
Rp1142
(dp1143
g18
F0.5
sg19
I375003
sg20
g21
((dp1144
I00
I370800
sI01
I4203
stp1145
Rp1146
sg25
I2
sg26
F375004.0
sbs(g8
S'contains(at)'
p1147
tp1148
g0
(g14
g2
Ntp1149
Rp1150
(dp1151
g18
F0.5
sg19
I375004
sg20
g21
((dp1152
I00
I351793
sI01
I23211
stp1153
Rp1154
sg25
I2
sg26
F375005.0
sbs(g9
S'contains(see)'
p1155
tp1156
g0
(g14
g2
Ntp1157
Rp1158
(dp1159
g18
F0.5
sg19
I375003
sg20
g21
((dp1160
I00
I365822
sI01
I9181
stp1161
Rp1162
sg25
I2
sg26
F375004.0
sbs(g9
S'contains(in)'
p1163
tp1164
g0
(g14
g2
Ntp1165
Rp1166
(dp1167
g18
F0.5
sg19
I375003
sg20
g21
((dp1168
I00
I339822
sI01
I35181
stp1169
Rp1170
sg25
I2
sg26
F375004.0
sbs(g8
S'contains(well)'
p1171
tp1172
g0
(g14
g2
Ntp1173
Rp1174
(dp1175
g18
F0.5
sg19
I375004
sg20
g21
((dp1176
I00
I369347
sI01
I5657
stp1177
Rp1178
sg25
I2
sg26
F375005.0
sbs(g9
S'contains(back)'
p1179
tp1180
g0
(g14
g2
Ntp1181
Rp1182
(dp1183
g18
F0.5
sg19
I375003
sg20
g21
((dp1184
I00
I367319
sI01
I7684
stp1185
Rp1186
sg25
I2
sg26
F375004.0
sbs(g8
S'contains(they)'
p1187
tp1188
g0
(g14
g2
Ntp1189
Rp1190
(dp1191
g18
F0.5
sg19
I375004
sg20
g21
((dp1192
I00
I367833
sI01
I7171
stp1193
Rp1194
sg25
I2
sg26
F375005.0
sbs(g8
S'contains(sorry)'
p1195
tp1196
g0
(g14
g2
Ntp1197
Rp1198
(dp1199
g18
F0.5
sg19
I375004
sg20
g21
((dp1200
I00
I368084
sI01
I6920
stp1201
Rp1202
sg25
I2
sg26
F375005.0
sbs(g9
S'contains(well)'
p1203
tp1204
g0
(g14
g2
Ntp1205
Rp1206
(dp1207
g18
F0.5
sg19
I375003
sg20
g21
((dp1208
I00
I368003
sI01
I7000
stp1209
Rp1210
sg25
I2
sg26
F375004.0
sbs(g8
S'contains(going)'
p1211
tp1212
g0
(g14
g2
Ntp1213
Rp1214
(dp1215
g18
F0.5
sg19
I375004
sg20
g21
((dp1216
I00
I362407
sI01
I12597
stp1217
Rp1218
sg25
I2
sg26
F375005.0
sbs(g8
S'contains(your)'
p1219
tp1220
g0
(g14
g2
Ntp1221
Rp1222
(dp1223
g18
F0.5
sg19
I375004
sg20
g21
((dp1224
I00
I366954
sI01
I8050
stp1225
Rp1226
sg25
I2
sg26
F375005.0
sbs(g9
S'contains(lol)'
p1227
tp1228
g0
(g14
g2
Ntp1229
Rp1230
(dp1231
g18
F0.5
sg19
I375003
sg20
g21
((dp1232
I00
I365072
sI01
I9931
stp1233
Rp1234
sg25
I2
sg26
F375004.0
sbs(g8
S'contains(oh)'
p1235
tp1236
g0
(g14
g2
Ntp1237
Rp1238
(dp1239
g18
F0.5
sg19
I375004
sg20
g21
((dp1240
I00
I366802
sI01
I8202
stp1241
Rp1242
sg25
I2
sg26
F375005.0
sbs(g8
S'contains(only)'
p1243
tp1244
g0
(g14
g2
Ntp1245
Rp1246
(dp1247
g18
F0.5
sg19
I375004
sg20
g21
((dp1248
I00
I368744
sI01
I6260
stp1249
Rp1250
sg25
I2
sg26
F375005.0
sbs(g9
S'contains(2)'
p1251
tp1252
g0
(g14
g2
Ntp1253
Rp1254
(dp1255
g18
F0.5
sg19
I375003
sg20
g21
((dp1256
I00
I369936
sI01
I5067
stp1257
Rp1258
sg25
I2
sg26
F375004.0
sbs(g8
S'contains(by)'
p1259
tp1260
g0
(g14
g2
Ntp1261
Rp1262
(dp1263
g18
F0.5
sg19
I375004
sg20
g21
((dp1264
I00
I370164
sI01
I4840
stp1265
Rp1266
sg25
I2
sg26
F375005.0
sbs(g8
S'contains(her)'
p1267
tp1268
g0
(g14
g2
Ntp1269
Rp1270
(dp1271
g18
F0.5
sg19
I375004
sg20
g21
((dp1272
I00
I369257
sI01
I5747
stp1273
Rp1274
sg25
I2
sg26
F375005.0
sbs(g8
S'contains(2)'
p1275
tp1276
g0
(g14
g2
Ntp1277
Rp1278
(dp1279
g18
F0.5
sg19
I375004
sg20
g21
((dp1280
I00
I367702
sI01
I7302
stp1281
Rp1282
sg25
I2
sg26
F375005.0
sbs(g9
S'contains(me)'
p1283
tp1284
g0
(g14
g2
Ntp1285
Rp1286
(dp1287
g18
F0.5
sg19
I375003
sg20
g21
((dp1288
I00
I354044
sI01
I20959
stp1289
Rp1290
sg25
I2
sg26
F375004.0
sbs(g9
S'contains(could)'
p1291
tp1292
g0
(g14
g2
Ntp1293
Rp1294
(dp1295
g18
F0.5
sg19
I375003
sg20
g21
((dp1296
I00
I372147
sI01
I2856
stp1297
Rp1298
sg25
I2
sg26
F375004.0
sbs(g9
S'contains(he)'
p1299
tp1300
g0
(g14
g2
Ntp1301
Rp1302
(dp1303
g18
F0.5
sg19
I375003
sg20
g21
((dp1304
I00
I371011
sI01
I3992
stp1305
Rp1306
sg25
I2
sg26
F375004.0
sbs(g8
S'contains(about)'
p1307
tp1308
g0
(g14
g2
Ntp1309
Rp1310
(dp1311
g18
F0.5
sg19
I375004
sg20
g21
((dp1312
I00
I365089
sI01
I9915
stp1313
Rp1314
sg25
I2
sg26
F375005.0
sbs(g8
S'contains(work)'
p1315
tp1316
g0
(g14
g2
Ntp1317
Rp1318
(dp1319
g18
F0.5
sg19
I375004
sg20
g21
((dp1320
I00
I361524
sI01
I13480
stp1321
Rp1322
sg25
I2
sg26
F375005.0
sbs(g8
S'contains(this)'
p1323
tp1324
g0
(g14
g2
Ntp1325
Rp1326
(dp1327
g18
F0.5
sg19
I375004
sg20
g21
((dp1328
I00
I355962
sI01
I19042
stp1329
Rp1330
sg25
I2
sg26
F375005.0
sbs(g9
S'contains(oh)'
p1331
tp1332
g0
(g14
g2
Ntp1333
Rp1334
(dp1335
g18
F0.5
sg19
I375003
sg20
g21
((dp1336
I00
I369014
sI01
I5989
stp1337
Rp1338
sg25
I2
sg26
F375004.0
sbs(g9
S'contains(from)'
p1339
tp1340
g0
(g14
g2
Ntp1341
Rp1342
(dp1343
g18
F0.5
sg19
I375003
sg20
g21
((dp1344
I00
I364255
sI01
I10748
stp1345
Rp1346
sg25
I2
sg26
F375004.0
sbs(g8
S'contains(in)'
p1347
tp1348
g0
(g14
g2
Ntp1349
Rp1350
(dp1351
g18
F0.5
sg19
I375004
sg20
g21
((dp1352
I00
I333692
sI01
I41312
stp1353
Rp1354
sg25
I2
sg26
F375005.0
sbs(g8
S'contains(very)'
p1355
tp1356
g0
(g14
g2
Ntp1357
Rp1358
(dp1359
g18
F0.5
sg19
I375004
sg20
g21
((dp1360
I00
I370543
sI01
I4461
stp1361
Rp1362
sg25
I2
sg26
F375005.0
sbs(g8
S'contains(now)'
p1363
tp1364
g0
(g14
g2
Ntp1365
Rp1366
(dp1367
g18
F0.5
sg19
I375004
sg20
g21
((dp1368
I00
I360817
sI01
I14187
stp1369
Rp1370
sg25
I2
sg26
F375005.0
sbs(g9
S'contains(feel)'
p1371
tp1372
g0
(g14
g2
Ntp1373
Rp1374
(dp1375
g18
F0.5
sg19
I375003
sg20
g21
((dp1376
I00
I372050
sI01
I2953
stp1377
Rp1378
sg25
I2
sg26
F375004.0
sbs(g8
S'contains(feel)'
p1379
tp1380
g0
(g14
g2
Ntp1381
Rp1382
(dp1383
g18
F0.5
sg19
I375004
sg20
g21
((dp1384
I00
I366640
sI01
I8364
stp1385
Rp1386
sg25
I2
sg26
F375005.0
sbs(g9
S'contains(your)'
p1387
tp1388
g0
(g14
g2
Ntp1389
Rp1390
(dp1391
g18
F0.5
sg19
I375003
sg20
g21
((dp1392
I00
I358849
sI01
I16154
stp1393
Rp1394
sg25
I2
sg26
F375004.0
sbs(g8
S'contains(im)'
p1395
tp1396
g0
(g14
g2
Ntp1397
Rp1398
(dp1399
g18
F0.5
sg19
I375004
sg20
g21
((dp1400
I00
I364091
sI01
I10913
stp1401
Rp1402
sg25
I2
sg26
F375005.0
sbs(g8
S'contains(so)'
p1403
tp1404
g0
(g14
g2
Ntp1405
Rp1406
(dp1407
g18
F0.5
sg19
I375004
sg20
g21
((dp1408
I00
I345373
sI01
I29631
stp1409
Rp1410
sg25
I2
sg26
F375005.0
sbs(g8
S'contains(up)'
p1411
tp1412
g0
(g14
g2
Ntp1413
Rp1414
(dp1415
g18
F0.5
sg19
I375004
sg20
g21
((dp1416
I00
I359036
sI01
I15968
stp1417
Rp1418
sg25
I2
sg26
F375005.0
sbs(g9
S'contains(by)'
p1419
tp1420
g0
(g14
g2
Ntp1421
Rp1422
(dp1423
g18
F0.5
sg19
I375003
sg20
g21
((dp1424
I00
I370490
sI01
I4513
stp1425
Rp1426
sg25
I2
sg26
F375004.0
sbs(g8
S'contains(here)'
p1427
tp1428
g0
(g14
g2
Ntp1429
Rp1430
(dp1431
g18
F0.5
sg19
I375004
sg20
g21
((dp1432
I00
I369368
sI01
I5636
stp1433
Rp1434
sg25
I2
sg26
F375005.0
sbs(g9
S'contains(but)'
p1435
tp1436
g0
(g14
g2
Ntp1437
Rp1438
(dp1439
g18
F0.5
sg19
I375003
sg20
g21
((dp1440
I00
I362460
sI01
I12543
stp1441
Rp1442
sg25
I2
sg26
F375004.0
sbs(g8
S'contains(last)'
p1443
tp1444
g0
(g14
g2
Ntp1445
Rp1446
(dp1447
g18
F0.5
sg19
I375004
sg20
g21
((dp1448
I00
I366503
sI01
I8501
stp1449
Rp1450
sg25
I2
sg26
F375005.0
sbs(g8
S'contains(are)'
p1451
tp1452
g0
(g14
g2
Ntp1453
Rp1454
(dp1455
g18
F0.5
sg19
I375004
sg20
g21
((dp1456
I00
I362255
sI01
I12749
stp1457
Rp1458
sg25
I2
sg26
F375005.0
sbs(g8
S'contains(been)'
p1459
tp1460
g0
(g14
g2
Ntp1461
Rp1462
(dp1463
g18
F0.5
sg19
I375004
sg20
g21
((dp1464
I00
I367378
sI01
I7626
stp1465
Rp1466
sg25
I2
sg26
F375005.0
sbs(g8
S'contains(come)'
p1467
tp1468
g0
(g14
g2
Ntp1469
Rp1470
(dp1471
g18
F0.5
sg19
I375004
sg20
g21
((dp1472
I00
I370297
sI01
I4707
stp1473
Rp1474
sg25
I2
sg26
F375005.0
sbs(g9
S'contains(im)'
p1475
tp1476
g0
(g14
g2
Ntp1477
Rp1478
(dp1479
g18
F0.5
sg19
I375003
sg20
g21
((dp1480
I00
I368005
sI01
I6998
stp1481
Rp1482
sg25
I2
sg26
F375004.0
sbs(g9
S'contains(hope)'
p1483
tp1484
g0
(g14
g2
Ntp1485
Rp1486
(dp1487
g18
F0.5
sg19
I375003
sg20
g21
((dp1488
I00
I368042
sI01
I6961
stp1489
Rp1490
sg25
I2
sg26
F375004.0
sbs(g8
S'contains(know)'
p1491
tp1492
g0
(g14
g2
Ntp1493
Rp1494
(dp1495
g18
F0.5
sg19
I375004
sg20
g21
((dp1496
I00
I365968
sI01
I9036
stp1497
Rp1498
sg25
I2
sg26
F375005.0
sbs(g8
S'contains(has)'
p1499
tp1500
g0
(g14
g2
Ntp1501
Rp1502
(dp1503
g18
F0.5
sg19
I375004
sg20
g21
((dp1504
I00
I367064
sI01
I7940
stp1505
Rp1506
sg25
I2
sg26
F375005.0
sbs(g9
S'contains(or)'
p1507
tp1508
g0
(g14
g2
Ntp1509
Rp1510
(dp1511
g18
F0.5
sg19
I375003
sg20
g21
((dp1512
I00
I369546
sI01
I5457
stp1513
Rp1514
sg25
I2
sg26
F375004.0
sbs(g8
S"contains(i'll)"
p1515
tp1516
g0
(g14
g2
Ntp1517
Rp1518
(dp1519
g18
F0.5
sg19
I375004
sg20
g21
((dp1520
I00
I371521
sI01
I3483
stp1521
Rp1522
sg25
I2
sg26
F375005.0
sbs(g9
S'contains(is)'
p1523
tp1524
g0
(g14
g2
Ntp1525
Rp1526
(dp1527
g18
F0.5
sg19
I375003
sg20
g21
((dp1528
I00
I336818
sI01
I38185
stp1529
Rp1530
sg25
I2
sg26
F375004.0
sbs(g8
S'contains(that)'
p1531
tp1532
g0
(g14
g2
Ntp1533
Rp1534
(dp1535
g18
F0.5
sg19
I375004
sg20
g21
((dp1536
I00
I349488
sI01
I25516
stp1537
Rp1538
sg25
I2
sg26
F375005.0
sbs(g8
S'contains(much)'
p1539
tp1540
g0
(g14
g2
Ntp1541
Rp1542
(dp1543
g18
F0.5
sg19
I375004
sg20
g21
((dp1544
I00
I368580
sI01
I6424
stp1545
Rp1546
sg25
I2
sg26
F375005.0
sbs(g9
S'contains(u)'
p1547
tp1548
g0
(g14
g2
Ntp1549
Rp1550
(dp1551
g18
F0.5
sg19
I375003
sg20
g21
((dp1552
I00
I365330
sI01
I9673
stp1553
Rp1554
sg25
I2
sg26
F375004.0
sbs(g9
S'contains(right)'
p1555
tp1556
g0
(g14
g2
Ntp1557
Rp1558
(dp1559
g18
F0.5
sg19
I375003
sg20
g21
((dp1560
I00
I371483
sI01
I3520
stp1561
Rp1562
sg25
I2
sg26
F375004.0
sbs(g9
S'contains(go)'
p1563
tp1564
g0
(g14
g2
Ntp1565
Rp1566
(dp1567
g18
F0.5
sg19
I375003
sg20
g21
((dp1568
I00
I365648
sI01
I9355
stp1569
Rp1570
sg25
I2
sg26
F375004.0
sbs(g9
S'contains(bad)'
p1571
tp1572
g0
(g14
g2
Ntp1573
Rp1574
(dp1575
g18
F0.5
sg19
I375003
sg20
g21
((dp1576
I00
I373430
sI01
I1573
stp1577
Rp1578
sg25
I2
sg26
F375004.0
sbs(g8
S'contains(right)'
p1579
tp1580
g0
(g14
g2
Ntp1581
Rp1582
(dp1583
g18
F0.5
sg19
I375004
sg20
g21
((dp1584
I00
I369952
sI01
I5052
stp1585
Rp1586
sg25
I2
sg26
F375005.0
sbs(g8
S'contains(twitter)'
p1587
tp1588
g0
(g14
g2
Ntp1589
Rp1590
(dp1591
g18
F0.5
sg19
I375004
sg20
g21
((dp1592
I00
I370945
sI01
I4059
stp1593
Rp1594
sg25
I2
sg26
F375005.0
sbs(g9
S'contains(just)'
p1595
tp1596
g0
(g14
g2
Ntp1597
Rp1598
(dp1599
g18
F0.5
sg19
I375003
sg20
g21
((dp1600
I00
I352806
sI01
I22197
stp1601
Rp1602
sg25
I2
sg26
F375004.0
sbs(g8
S'contains(with)'
p1603
tp1604
g0
(g14
g2
Ntp1605
Rp1606
(dp1607
g18
F0.5
sg19
I375004
sg20
g21
((dp1608
I00
I356115
sI01
I18889
stp1609
Rp1610
sg25
I2
sg26
F375005.0
sbs(g9
S'contains(with)'
p1611
tp1612
g0
(g14
g2
Ntp1613
Rp1614
(dp1615
g18
F0.5
sg19
I375003
sg20
g21
((dp1616
I00
I350697
sI01
I24306
stp1617
Rp1618
sg25
I2
sg26
F375004.0
sbs(g9
S'contains(really)'
p1619
tp1620
g0
(g14
g2
Ntp1621
Rp1622
(dp1623
g18
F0.5
sg19
I375003
sg20
g21
((dp1624
I00
I368927
sI01
I6076
stp1625
Rp1626
sg25
I2
sg26
F375004.0
sbs(g8
S'contains(too)'
p1627
tp1628
g0
(g14
g2
Ntp1629
Rp1630
(dp1631
g18
F0.5
sg19
I375004
sg20
g21
((dp1632
I00
I364043
sI01
I10961
stp1633
Rp1634
sg25
I2
sg26
F375005.0
sbs(g8
S'contains(haha)'
p1635
tp1636
g0
(g14
g2
Ntp1637
Rp1638
(dp1639
g18
F0.5
sg19
I375004
sg20
g21
((dp1640
I00
I372074
sI01
I2930
stp1641
Rp1642
sg25
I2
sg26
F375005.0
sbs(g8
S'contains(or)'
p1643
tp1644
g0
(g14
g2
Ntp1645
Rp1646
(dp1647
g18
F0.5
sg19
I375004
sg20
g21
((dp1648
I00
I370005
sI01
I4999
stp1649
Rp1650
sg25
I2
sg26
F375005.0
sbs(g8
S'contains(if)'
p1651
tp1652
g0
(g14
g2
Ntp1653
Rp1654
(dp1655
g18
F0.5
sg19
I375004
sg20
g21
((dp1656
I00
I368134
sI01
I6870
stp1657
Rp1658
sg25
I2
sg26
F375005.0
sbs(g9
S'contains(haha)'
p1659
tp1660
g0
(g14
g2
Ntp1661
Rp1662
(dp1663
g18
F0.5
sg19
I375003
sg20
g21
((dp1664
I00
I368837
sI01
I6166
stp1665
Rp1666
sg25
I2
sg26
F375004.0
sbs(g9
S'contains(new)'
p1667
tp1668
g0
(g14
g2
Ntp1669
Rp1670
(dp1671
g18
F0.5
sg19
I375003
sg20
g21
((dp1672
I00
I365160
sI01
I9843
stp1673
Rp1674
sg25
I2
sg26
F375004.0
sbs(g9
S'contains(so)'
p1675
tp1676
g0
(g14
g2
Ntp1677
Rp1678
(dp1679
g18
F0.5
sg19
I375003
sg20
g21
((dp1680
I00
I353659
sI01
I21344
stp1681
Rp1682
sg25
I2
sg26
F375004.0
sbs(g9
S'contains(of)'
p1683
tp1684
g0
(g14
g2
Ntp1685
Rp1686
(dp1687
g18
F0.5
sg19
I375003
sg20
g21
((dp1688
I00
I343167
sI01
I31836
stp1689
Rp1690
sg25
I2
sg26
F375004.0
sbs(g9
S"contains(it's)"
p1691
tp1692
g0
(g14
g2
Ntp1693
Rp1694
(dp1695
g18
F0.5
sg19
I375003
sg20
g21
((dp1696
I00
I364653
sI01
I10350
stp1697
Rp1698
sg25
I2
sg26
F375004.0
sbs(g8
S'contains(get)'
p1699
tp1700
g0
(g14
g2
Ntp1701
Rp1702
(dp1703
g18
F0.5
sg19
I375004
sg20
g21
((dp1704
I00
I358106
sI01
I16898
stp1705
Rp1706
sg25
I2
sg26
F375005.0
sbs(g8
S'contains(be)'
p1707
tp1708
g0
(g14
g2
Ntp1709
Rp1710
(dp1711
g18
F0.5
sg19
I375004
sg20
g21
((dp1712
I00
I353690
sI01
I21314
stp1713
Rp1714
sg25
I2
sg26
F375005.0
sbs(g8
S'contains(is)'
p1715
tp1716
g0
(g14
g2
Ntp1717
Rp1718
(dp1719
g18
F0.5
sg19
I375004
sg20
g21
((dp1720
I00
I328260
sI01
I46744
stp1721
Rp1722
sg25
I2
sg26
F375005.0
sbs(g8
S'contains(and)'
p1723
tp1724
g0
(g14
g2
Ntp1725
Rp1726
(dp1727
g18
F0.5
sg19
I375004
sg20
g21
((dp1728
I00
I324843
sI01
I50161
stp1729
Rp1730
sg25
I2
sg26
F375005.0
sbs(g8
S'contains(you)'
p1731
tp1732
g0
(g14
g2
Ntp1733
Rp1734
(dp1735
g18
F0.5
sg19
I375004
sg20
g21
((dp1736
I00
I345788
sI01
I29216
stp1737
Rp1738
sg25
I2
sg26
F375005.0
sbs(g9
S"contains(that's)"
p1739
tp1740
g0
(g14
g2
Ntp1741
Rp1742
(dp1743
g18
F0.5
sg19
I375003
sg20
g21
((dp1744
I00
I370319
sI01
I4684
stp1745
Rp1746
sg25
I2
sg26
F375004.0
sbs(g8
S'contains(yeah)'
p1747
tp1748
g0
(g14
g2
Ntp1749
Rp1750
(dp1751
g18
F0.5
sg19
I375004
sg20
g21
((dp1752
I00
I371527
sI01
I3477
stp1753
Rp1754
sg25
I2
sg26
F375005.0
sbs(g8
S'contains(getting)'
p1755
tp1756
g0
(g14
g2
Ntp1757
Rp1758
(dp1759
g18
F0.5
sg19
I375004
sg20
g21
((dp1760
I00
I369894
sI01
I5110
stp1761
Rp1762
sg25
I2
sg26
F375005.0
sbs(g9
S'contains(last)'
p1763
tp1764
g0
(g14
g2
Ntp1765
Rp1766
(dp1767
g18
F0.5
sg19
I375003
sg20
g21
((dp1768
I00
I370276
sI01
I4727
stp1769
Rp1770
sg25
I2
sg26
F375004.0
sbs(g9
S'contains(yeah)'
p1771
tp1772
g0
(g14
g2
Ntp1773
Rp1774
(dp1775
g18
F0.5
sg19
I375003
sg20
g21
((dp1776
I00
I370815
sI01
I4188
stp1777
Rp1778
sg25
I2
sg26
F375004.0
sbs(g8
S'contains(when)'
p1779
tp1780
g0
(g14
g2
Ntp1781
Rp1782
(dp1783
g18
F0.5
sg19
I375004
sg20
g21
((dp1784
I00
I366675
sI01
I8329
stp1785
Rp1786
sg25
I2
sg26
F375005.0
sbs(g9
S'contains(why)'
p1787
tp1788
g0
(g14
g2
Ntp1789
Rp1790
(dp1791
g18
F0.5
sg19
I375003
sg20
g21
((dp1792
I00
I372552
sI01
I2451
stp1793
Rp1794
sg25
I2
sg26
F375004.0
sbs(g8
S'contains(happy)'
p1795
tp1796
g0
(g14
g2
Ntp1797
Rp1798
(dp1799
g18
F0.5
sg19
I375004
sg20
g21
((dp1800
I00
I372832
sI01
I2172
stp1801
Rp1802
sg25
I2
sg26
F375005.0
sbs(g9
S'contains(-)'
p1803
tp1804
g0
(g14
g2
Ntp1805
Rp1806
(dp1807
g18
F0.5
sg19
I375003
sg20
g21
((dp1808
I00
I358463
sI01
I16540
stp1809
Rp1810
sg25
I2
sg26
F375004.0
sbs(g9
S'contains(as)'
p1811
tp1812
g0
(g14
g2
Ntp1813
Rp1814
(dp1815
g18
F0.5
sg19
I375003
sg20
g21
((dp1816
I00
I369191
sI01
I5812
stp1817
Rp1818
sg25
I2
sg26
F375004.0
sbs(g9
S'contains(a)'
p1819
tp1820
g0
(g14
g2
Ntp1821
Rp1822
(dp1823
g18
F0.5
sg19
I375003
sg20
g21
((dp1824
I00
I308418
sI01
I66585
stp1825
Rp1826
sg25
I2
sg26
F375004.0
sbs(g8
S'contains(make)'
p1827
tp1828
g0
(g14
g2
Ntp1829
Rp1830
(dp1831
g18
F0.5
sg19
I375004
sg20
g21
((dp1832
I00
I370334
sI01
I4670
stp1833
Rp1834
sg25
I2
sg26
F375005.0
sbs(g9
S'contains(good)'
p1835
tp1836
g0
(g14
g2
Ntp1837
Rp1838
(dp1839
g18
F0.5
sg19
I375003
sg20
g21
((dp1840
I00
I354879
sI01
I20124
stp1841
Rp1842
sg25
I2
sg26
F375004.0
sbs(g8
S'contains(really)'
p1843
tp1844
g0
(g14
g2
Ntp1845
Rp1846
(dp1847
g18
F0.5
sg19
I375004
sg20
g21
((dp1848
I00
I364127
sI01
I10877
stp1849
Rp1850
sg25
I2
sg26
F375005.0
sbs(g8
S'contains(new)'
p1851
tp1852
g0
(g14
g2
Ntp1853
Rp1854
(dp1855
g18
F0.5
sg19
I375004
sg20
g21
((dp1856
I00
I369110
sI01
I5894
stp1857
Rp1858
sg25
I2
sg26
F375005.0
sbs(g9
S'contains(out)'
p1859
tp1860
g0
(g14
g2
Ntp1861
Rp1862
(dp1863
g18
F0.5
sg19
I375003
sg20
g21
((dp1864
I00
I362729
sI01
I12274
stp1865
Rp1866
sg25
I2
sg26
F375004.0
sbs(g9
S'contains(all)'
p1867
tp1868
g0
(g14
g2
Ntp1869
Rp1870
(dp1871
g18
F0.5
sg19
I375003
sg20
g21
((dp1872
I00
I362146
sI01
I12857
stp1873
Rp1874
sg25
I2
sg26
F375004.0
sbs(g9
S'contains(an)'
p1875
tp1876
g0
(g14
g2
Ntp1877
Rp1878
(dp1879
g18
F0.5
sg19
I375003
sg20
g21
((dp1880
I00
I368338
sI01
I6665
stp1881
Rp1882
sg25
I2
sg26
F375004.0
sbs(g9
S'contains(at)'
p1883
tp1884
g0
(g14
g2
Ntp1885
Rp1886
(dp1887
g18
F0.5
sg19
I375003
sg20
g21
((dp1888
I00
I356919
sI01
I18084
stp1889
Rp1890
sg25
I2
sg26
F375004.0
sbs(g8
S'contains(all)'
p1891
tp1892
g0
(g14
g2
Ntp1893
Rp1894
(dp1895
g18
F0.5
sg19
I375004
sg20
g21
((dp1896
I00
I360621
sI01
I14383
stp1897
Rp1898
sg25
I2
sg26
F375005.0
sbs(g9
S'contains(get)'
p1899
tp1900
g0
(g14
g2
Ntp1901
Rp1902
(dp1903
g18
F0.5
sg19
I375003
sg20
g21
((dp1904
I00
I361780
sI01
I13223
stp1905
Rp1906
sg25
I2
sg26
F375004.0
sbs(g8
S'contains(how)'
p1907
tp1908
g0
(g14
g2
Ntp1909
Rp1910
(dp1911
g18
F0.5
sg19
I375004
sg20
g21
((dp1912
I00
I367236
sI01
I7768
stp1913
Rp1914
sg25
I2
sg26
F375005.0
sbs(g8
S'contains(want)'
p1915
tp1916
g0
(g14
g2
Ntp1917
Rp1918
(dp1919
g18
F0.5
sg19
I375004
sg20
g21
((dp1920
I00
I363585
sI01
I11419
stp1921
Rp1922
sg25
I2
sg26
F375005.0
sbs(g9
S'contains(going)'
p1923
tp1924
g0
(g14
g2
Ntp1925
Rp1926
(dp1927
g18
F0.5
sg19
I375003
sg20
g21
((dp1928
I00
I363777
sI01
I11226
stp1929
Rp1930
sg25
I2
sg26
F375004.0
sbs(g8
S'contains(to)'
p1931
tp1932
g0
(g14
g2
Ntp1933
Rp1934
(dp1935
g18
F0.5
sg19
I375004
sg20
g21
((dp1936
I00
I276123
sI01
I98881
stp1937
Rp1938
sg25
I2
sg26
F375005.0
sbs(g9
S'contains(great)'
p1939
tp1940
g0
(g14
g2
Ntp1941
Rp1942
(dp1943
g18
F0.5
sg19
I375003
sg20
g21
((dp1944
I00
I366754
sI01
I8249
stp1945
Rp1946
sg25
I2
sg26
F375004.0
sbs(g9
S'contains(has)'
p1947
tp1948
g0
(g14
g2
Ntp1949
Rp1950
(dp1951
g18
F0.5
sg19
I375003
sg20
g21
((dp1952
I00
I370631
sI01
I4372
stp1953
Rp1954
sg25
I2
sg26
F375004.0
sbs(g9
S"contains(don't)"
p1955
tp1956
g0
(g14
g2
Ntp1957
Rp1958
(dp1959
g18
F0.5
sg19
I375003
sg20
g21
((dp1960
I00
I369167
sI01
I5836
stp1961
Rp1962
sg25
I2
sg26
F375004.0
sbs(g8
S'contains(like)'
p1963
tp1964
g0
(g14
g2
Ntp1965
Rp1966
(dp1967
g18
F0.5
sg19
I375004
sg20
g21
((dp1968
I00
I359802
sI01
I15202
stp1969
Rp1970
sg25
I2
sg26
F375005.0
sbs(g9
S'contains(much)'
p1971
tp1972
g0
(g14
g2
Ntp1973
Rp1974
(dp1975
g18
F0.5
sg19
I375003
sg20
g21
((dp1976
I00
I369782
sI01
I5221
stp1977
Rp1978
sg25
I2
sg26
F375004.0
sbs(g9
S'contains(my)'
p1979
tp1980
g0
(g14
g2
Ntp1981
Rp1982
(dp1983
g18
F0.5
sg19
I375003
sg20
g21
((dp1984
I00
I331595
sI01
I43408
stp1985
Rp1986
sg25
I2
sg26
F375004.0
sbs(g8
S'contains(day)'
p1987
tp1988
g0
(g14
g2
Ntp1989
Rp1990
(dp1991
g18
F0.5
sg19
I375004
sg20
g21
((dp1992
I00
I363292
sI01
I11712
stp1993
Rp1994
sg25
I2
sg26
F375005.0
sbs(g8
S'contains(could)'
p1995
tp1996
g0
(g14
g2
Ntp1997
Rp1998
(dp1999
g18
F0.5
sg19
I375004
sg20
g21
((dp2000
I00
I369684
sI01
I5320
stp2001
Rp2002
sg25
I2
sg26
F375005.0
sbs(g8
S'contains(more)'
p2003
tp2004
g0
(g14
g2
Ntp2005
Rp2006
(dp2007
g18
F0.5
sg19
I375004
sg20
g21
((dp2008
I00
I368643
sI01
I6361
stp2009
Rp2010
sg25
I2
sg26
F375005.0
sbs(g8
S'contains(a)'
p2011
tp2012
g0
(g14
g2
Ntp2013
Rp2014
(dp2015
g18
F0.5
sg19
I375004
sg20
g21
((dp2016
I00
I311864
sI01
I63140
stp2017
Rp2018
sg25
I2
sg26
F375005.0
sbs(g8
S'contains(morning)'
p2019
tp2020
g0
(g14
g2
Ntp2021
Rp2022
(dp2023
g18
F0.5
sg19
I375004
sg20
g21
((dp2024
I00
I371301
sI01
I3703
stp2025
Rp2026
sg25
I2
sg26
F375005.0
sbs(g9
S'contains(one)'
p2027
tp2028
g0
(g14
g2
Ntp2029
Rp2030
(dp2031
g18
F0.5
sg19
I375003
sg20
g21
((dp2032
I00
I367056
sI01
I7947
stp2033
Rp2034
sg25
I2
sg26
F375004.0
sbssS'_label_probdist'
p2035
g0
(g14
g2
Ntp2036
Rp2037
(dp2038
g18
F0.5
sg19
I750007
sg20
g21
((dp2039
g8
I375004
sg9
I375003
stp2040
Rp2041
sg25
I2
sg26
F750008.0
sbsb.