(lp0
(lp1
S'2016-08-30'
p2
aF1.3255813953488371
aF3.28
aa(lp3
S'2016-08-31'
p4
aF1.4691358024691359
aF3.4285714285714284
aa(lp5
S'2017-04-19'
p6
aF1.2988505747126438
aF2.176470588235294
aa(lp7
S'2016-09-08'
p8
aF1.1157894736842104
aF1.4615384615384615
aa(lp9
S'2016-09-09'
p10
aF1.2988505747126438
aF4.8125
aa(lp11
S'2016-09-04'
p12
aF1.4096385542168675
aF3.9473684210526314
aa(lp13
S'2016-09-05'
p14
aF1.247191011235955
aF4.8
aa(lp15
S'2016-09-06'
p16
aF1.3529411764705883
aF3.888888888888889
aa(lp17
S'2016-09-07'
p18
aF1.8
aF2.3157894736842106
aa(lp19
S'2016-09-01'
p20
aF1.9411764705882353
aF3.0476190476190474
aa(lp21
S'2016-09-02'
p22
aF1.7397260273972603
aF2.5384615384615383
aa(lp23
S'2016-09-03'
p24
aF1.5316455696202531
aF3.5
aa(lp25
S'2016-12-04'
p26
aF2.125
aF4.1875
aa(lp27
S'2016-12-05'
p28
aF0.9607843137254902
aF3.185185185185185
aa(lp29
S'2016-12-06'
p30
aF1.6666666666666667
aF2.074074074074074
aa(lp31
S'2016-12-07'
p32
aF1.5
aF2.1470588235294117
aa(lp33
S'2017-04-11'
p34
aF1.4096385542168675
aF3.4
aa(lp35
S'2017-04-10'
p36
aF1.2222222222222223
aF2.225806451612903
aa(lp37
S'2016-12-02'
p38
aF1.0
aF3.0
aa(lp39
S'2016-12-03'
p40
aF1.247191011235955
aF3.24
aa(lp41
S'2017-01-30'
p42
aF0.9801980198019802
aF2.392857142857143
aa(lp43
S'2017-01-31'
p44
aF1.2222222222222223
aF2.7666666666666666
aa(lp45
S'2016-12-08'
p46
aF1.1157894736842104
aF3.074074074074074
aa(lp47
S'2017-04-18'
p48
aF1.5
aF2.5384615384615383
aa(lp49
S'2017-03-09'
p50
aF0.4492753623188406
aF4.6
aa(lp51
S'2017-03-08'
p52
aF1.1978021978021978
aF2.026315789473684
aa(lp53
S'2016-05-31'
p54
aF1.564102564102564
aF1.0
aa(lp55
S'2016-05-30'
p56
aF1.1505376344086022
aF3.4761904761904763
aa(lp57
S'2017-03-03'
p58
aF0.7241379310344828
aF1.5476190476190477
aa(lp59
S'2017-03-02'
p60
aF1.3103448275862069
aF2.4347826086956523
aa(lp61
S'2017-03-01'
p62
aF1.0
aF2.2903225806451615
aa(lp63
S'2017-03-07'
p64
aF1.2222222222222223
aF2.235294117647059
aa(lp65
S'2017-03-06'
p66
aF1.173913043478261
aF2.8461538461538463
aa(lp67
S'2017-03-05'
p68
aF1.3255813953488371
aF2.076923076923077
aa(lp69
S'2017-03-04'
p70
aF1.631578947368421
aF2.642857142857143
aa(lp71
S'2016-07-17'
p72
aF1.1505376344086022
aF5.428571428571429
aa(lp73
S'2016-07-16'
p74
aF1.6666666666666667
aF3.1052631578947367
aa(lp75
S'2016-11-23'
p76
aF1.4096385542168675
aF4.0
aa(lp77
S'2016-11-22'
p78
aF1.9411764705882353
aF4.55
aa(lp79
S'2016-11-21'
p80
aF1.8985507246376812
aF3.0
aa(lp81
S'2016-11-20'
p82
aF1.631578947368421
aF9.384615384615385
aa(lp83
S'2016-11-27'
p84
aF1.5
aF3.75
aa(lp85
S'2016-11-26'
p86
aF2.5714285714285716
aF3.8947368421052633
aa(lp87
S'2016-11-25'
p88
aF1.127659574468085
aF1.2941176470588236
aa(lp89
S'2016-07-18'
p90
aF1.173913043478261
aF3.8
aa(lp91
S'2016-11-29'
p92
aF1.0
aF3.1923076923076925
aa(lp93
S'2016-11-28'
p94
aF1.7777777777777777
aF2.8333333333333335
aa(lp95
S'2017-03-17'
p96
aF1.0
aF1.6666666666666667
aa(lp97
S'2016-05-10'
p98
aF1.7027027027027026
aF2.0294117647058822
aa(lp99
S'2016-10-31'
p100
aF1.8985507246376812
aF2.5925925925925926
aa(lp101
S'2016-10-30'
p102
aF1.3529411764705883
aF2.4
aa(lp103
S'2017-04-06'
p104
aF1.5
aF3.473684210526316
aa(lp105
S'2017-04-07'
p106
aF1.09375
aF2.0
aa(lp107
S'2016-06-27'
p108
aF1.8169014084507042
aF1.9411764705882353
aa(lp109
S'2016-06-26'
p110
aF0.9607843137254902
aF1.8611111111111112
aa(lp111
S'2016-06-25'
p112
aF2.5714285714285716
aF2.4
aa(lp113
S'2016-06-24'
p114
aF1.631578947368421
aF2.3703703703703702
aa(lp115
S'2016-06-23'
p116
aF1.3529411764705883
aF2.6551724137931036
aa(lp117
S'2016-06-22'
p118
aF1.5316455696202531
aF3.6363636363636362
aa(lp119
S'2016-06-21'
p120
aF1.1978021978021978
aF2.8260869565217392
aa(lp121
S'2016-06-20'
p122
aF1.2988505747126438
aF3.45
aa(lp123
S'2016-06-29'
p124
aF1.3255813953488371
aF3.272727272727273
aa(lp125
S'2016-06-28'
p126
aF2.125
aF2.1666666666666665
aa(lp127
S'2017-03-30'
p128
aF2.0303030303030303
aF2.2857142857142856
aa(lp129
S'2017-03-31'
p130
aF1.4390243902439024
aF2.375
aa(lp131
S'2016-12-19'
p132
aF1.380952380952381
aF2.7142857142857144
aa(lp133
S'2016-11-18'
p134
aF1.380952380952381
aF2.7857142857142856
aa(lp135
S'2016-11-19'
p136
aF1.8169014084507042
aF1.8
aa(lp137
S'2016-11-12'
p138
aF2.225806451612903
aF2.8095238095238093
aa(lp139
S'2016-11-13'
p140
aF2.278688524590164
aF2.037037037037037
aa(lp141
S'2016-11-10'
p142
aF1.6666666666666667
aF1.2352941176470589
aa(lp143
S'2016-07-30'
p144
aF2.389830508474576
aF2.586206896551724
aa(lp145
S'2016-11-16'
p146
aF1.4691358024691359
aF4.181818181818182
aa(lp147
S'2016-11-17'
p148
aF1.5974025974025974
aF2.730769230769231
aa(lp149
S'2016-11-14'
p150
aF1.5316455696202531
aF2.2142857142857144
aa(lp151
S'2016-11-15'
p152
aF1.4096385542168675
aF1.4736842105263157
aa(lp153
S'2017-04-20'
p154
aF1.5316455696202531
aF2.0
aa(lp155
S'2016-09-19'
p156
aF1.4096385542168675
aF2.25
aa(lp157
S'2016-09-18'
p158
aF1.518987341772152
aF4.8
aa(lp159
S'2016-08-29'
p160
aF2.076923076923077
aF2.772727272727273
aa(lp161
S'2016-08-28'
p162
aF1.4096385542168675
aF2.409090909090909
aa(lp163
S'2016-08-25'
p164
aF1.7777777777777777
aF2.5185185185185186
aa(lp165
S'2016-08-24'
p166
aF1.6666666666666667
aF2.6296296296296298
aa(lp167
S'2016-08-27'
p168
aF1.0408163265306123
aF2.6153846153846154
aa(lp169
S'2016-08-26'
p170
aF1.6666666666666667
aF2.5555555555555554
aa(lp171
S'2016-08-21'
p172
aF1.631578947368421
aF2.6363636363636362
aa(lp173
S'2016-08-20'
p174
aF1.7397260273972603
aF2.3666666666666667
aa(lp175
S'2016-08-23'
p176
aF1.0833333333333333
aF2.310344827586207
aa(lp177
S'2016-08-22'
p178
aF1.1505376344086022
aF2.7586206896551726
aa(lp179
S'2017-02-01'
p180
aF1.525
aF2.8214285714285716
aa(lp181
S'2017-02-02'
p182
aF1.173913043478261
aF2.4642857142857144
aa(lp183
S'2017-02-03'
p184
aF1.1505376344086022
aF1.5277777777777777
aa(lp185
S'2017-02-04'
p186
aF0.8018018018018018
aF1.9411764705882353
aa(lp187
S'2017-02-05'
p188
aF0.8867924528301887
aF2.5
aa(lp189
S'2017-02-06'
p190
aF0.44525547445255476
aF0.3877551020408163
aa(lp191
S'2017-02-07'
p192
aF1.127659574468085
aF1.4523809523809523
aa(lp193
S'2017-02-08'
p194
aF0.7391304347826086
aF2.212121212121212
aa(lp195
S'2017-02-09'
p196
aF1.8169014084507042
aF2.9130434782608696
aa(lp197
S'2016-04-30'
p198
aF3.0
aF2.212121212121212
aa(lp199
S'2016-10-08'
p200
aF1.5
aF1.96
aa(lp201
S'2016-10-09'
p202
aF2.0303030303030303
aF2.6818181818181817
aa(lp203
S'2016-10-06'
p204
aF1.3529411764705883
aF2.4285714285714284
aa(lp205
S'2016-10-07'
p206
aF1.7777777777777777
aF1.8285714285714285
aa(lp207
S'2016-10-04'
p208
aF1.5316455696202531
aF2.103448275862069
aa(lp209
S'2016-10-05'
p210
aF1.3255813953488371
aF1.625
aa(lp211
S'2016-10-02'
p212
aF2.7735849056603774
aF2.1
aa(lp213
S'2016-10-03'
p214
aF2.109375
aF3.1818181818181817
aa(lp215
S'2016-10-01'
p216
aF1.7397260273972603
aF1.3095238095238095
aa(lp217
S'2016-09-13'
p218
aF1.380952380952381
aF3.16
aa(lp219
S'2016-09-12'
p220
aF1.7027027027027026
aF1.9666666666666666
aa(lp221
S'2016-09-11'
p222
aF2.3333333333333335
aF4.45
aa(lp223
S'2016-09-10'
p224
aF1.2988505747126438
aF2.259259259259259
aa(lp225
S'2016-09-17'
p226
aF1.4691358024691359
aF3.5
aa(lp227
S'2016-09-16'
p228
aF1.3529411764705883
aF2.1666666666666665
aa(lp229
S'2016-09-15'
p230
aF1.3529411764705883
aF3.3333333333333335
aa(lp231
S'2016-09-14'
p232
aF1.3529411764705883
aF3.25
aa(lp233
S'2016-12-13'
p234
aF1.127659574468085
aF3.1904761904761907
aa(lp235
S'2016-12-12'
p236
aF1.4390243902439024
aF2.1785714285714284
aa(lp237
S'2016-12-11'
p238
aF1.4691358024691359
aF2.3214285714285716
aa(lp239
S'2016-12-10'
p240
aF1.6666666666666667
aF2.6538461538461537
aa(lp241
S'2016-12-17'
p242
aF0.6129032258064516
aF1.3409090909090908
aa(lp243
S'2016-12-16'
p244
aF1.4691358024691359
aF2.28
aa(lp245
S'2016-12-15'
p246
aF1.4390243902439024
aF1.8823529411764706
aa(lp247
S'2016-12-14'
p248
aF1.4268292682926829
aF2.8260869565217392
aa(lp249
S'2017-01-29'
p250
aF1.4691358024691359
aF1.5116279069767442
aa(lp251
S'2017-01-28'
p252
aF0.9801980198019802
aF0.847457627118644
aa(lp253
S'2017-01-27'
p254
aF2.278688524590164
aF4.8
aa(lp255
S'2017-01-26'
p256
aF1.1505376344086022
aF2.7666666666666666
aa(lp257
S'2017-01-25'
p258
aF1.631578947368421
aF1.9393939393939394
aa(lp259
S'2017-01-24'
p260
aF1.380952380952381
aF3.619047619047619
aa(lp261
S'2017-01-23'
p262
aF1.9411764705882353
aF3.5714285714285716
aa(lp263
S'2017-01-22'
p264
aF1.7027027027027026
aF5.428571428571429
aa(lp265
S'2017-01-21'
p266
aF2.508771929824561
aF4.428571428571429
aa(lp267
S'2017-01-20'
p268
aF1.4096385542168675
aF5.769230769230769
aa(lp269
S'2016-07-02'
p270
aF3.6511627906976742
aF3.923076923076923
aa(lp271
S'2016-07-03'
p272
aF1.4096385542168675
aF2.2666666666666666
aa(lp273
S'2016-07-01'
p274
aF1.2727272727272727
aF3.1363636363636362
aa(lp275
S'2016-07-06'
p276
aF1.631578947368421
aF3.764705882352941
aa(lp277
S'2016-07-07'
p278
aF1.3529411764705883
aF2.5416666666666665
aa(lp279
S'2016-07-04'
p280
aF2.1746031746031744
aF3.5
aa(lp281
S'2016-07-05'
p282
aF1.3255813953488371
aF5.857142857142857
aa(lp283
S'2016-05-01'
p284
aF1.8571428571428572
aF2.161290322580645
aa(lp285
S'2016-07-08'
p286
aF1.68
aF3.6666666666666665
aa(lp287
S'2016-07-09'
p288
aF1.631578947368421
aF3.5714285714285716
aa(lp289
S'2016-05-04'
p290
aF1.4390243902439024
aF3.0
aa(lp291
S'2016-05-05'
p292
aF1.6666666666666667
aF2.3793103448275863
aa(lp293
S'2016-05-06'
p294
aF1.8985507246376812
aF2.1923076923076925
aa(lp295
S'2016-05-07'
p296
aF1.9411764705882353
aF2.2941176470588234
aa(lp297
S'2016-06-18'
p298
aF1.7777777777777777
aF2.5925925925925926
aa(lp299
S'2016-06-19'
p300
aF3.761904761904762
aF4.090909090909091
aa(lp301
S'2016-06-16'
p302
aF1.4691358024691359
aF2.0
aa(lp303
S'2016-06-17'
p304
aF1.4691358024691359
aF2.92
aa(lp305
S'2016-06-14'
p306
aF1.8985507246376812
aF1.325
aa(lp307
S'2016-06-15'
p308
aF1.173913043478261
aF1.8611111111111112
aa(lp309
S'2016-06-12'
p310
aF0.43884892086330934
aF14.333333333333334
aa(lp311
S'2016-06-13'
p312
aF1.8169014084507042
aF2.5
aa(lp313
S'2016-06-10'
p314
aF1.564102564102564
aF2.1379310344827585
aa(lp315
S'2016-06-11'
p316
aF1.5769230769230769
aF3.217391304347826
aa(lp317
S'2016-05-08'
p318
aF2.076923076923077
aF3.35
aa(lp319
S'2016-05-09'
p320
aF1.7027027027027026
aF2.28
aa(lp321
S'2016-05-02'
p322
aF1.4691358024691359
aF2.0
aa(lp323
S'2016-05-03'
p324
aF1.3255813953488371
aF1.2380952380952381
aa(lp325
S'2017-03-23'
p326
aF1.4096385542168675
aF1.8823529411764706
aa(lp327
S'2016-12-18'
p328
aF1.0833333333333333
aF2.4
aa(lp329
S'2016-09-28'
p330
aF1.0618556701030928
aF2.75
aa(lp331
S'2016-09-29'
p332
aF1.6666666666666667
aF2.6153846153846154
aa(lp333
S'2016-09-22'
p334
aF1.4096385542168675
aF3.4782608695652173
aa(lp335
S'2016-09-23'
p336
aF1.173913043478261
aF3.7142857142857144
aa(lp337
S'2016-09-20'
p338
aF2.0303030303030303
aF2.6923076923076925
aa(lp339
S'2016-09-21'
p340
aF1.1978021978021978
aF3.2
aa(lp341
S'2016-09-26'
p342
aF1.3529411764705883
aF1.8125
aa(lp343
S'2016-09-27'
p344
aF1.173913043478261
aF2.0689655172413794
aa(lp345
S'2016-09-24'
p346
aF1.8169014084507042
aF3.4285714285714284
aa(lp347
S'2016-09-25'
p348
aF1.2988505747126438
aF1.5833333333333333
aa(lp349
S'2016-12-22'
p350
aF1.0
aF1.8
aa(lp351
S'2016-12-23'
p352
aF1.2727272727272727
aF2.08
aa(lp353
S'2016-12-20'
p354
aF1.9850746268656716
aF3.1818181818181817
aa(lp355
S'2016-12-21'
p356
aF1.127659574468085
aF2.3448275862068964
aa(lp357
S'2016-12-26'
p358
aF1.247191011235955
aF3.0
aa(lp359
S'2016-12-27'
p360
aF2.0303030303030303
aF3.9411764705882355
aa(lp361
S'2016-12-24'
p362
aF1.4390243902439024
aF2.2222222222222223
aa(lp363
S'2016-12-25'
p364
aF1.380952380952381
aF3.4545454545454546
aa(lp365
S'2016-12-28'
p366
aF1.564102564102564
aF2.6666666666666665
aa(lp367
S'2016-12-29'
p368
aF0.941747572815534
aF2.2222222222222223
aa(lp369
S'2017-01-16'
p370
aF1.564102564102564
aF2.4444444444444446
aa(lp371
S'2017-01-17'
p372
aF1.5974025974025974
aF2.3333333333333335
aa(lp373
S'2017-01-14'
p374
aF1.5316455696202531
aF2.026315789473684
aa(lp375
S'2017-01-15'
p376
aF1.247191011235955
aF3.0
aa(lp377
S'2017-01-12'
p378
aF1.105263157894737
aF3.2941176470588234
aa(lp379
S'2017-01-13'
p380
aF1.2988505747126438
aF1.78125
aa(lp381
S'2017-01-10'
p382
aF1.105263157894737
aF2.3225806451612905
aa(lp383
S'2017-01-11'
p384
aF1.4390243902439024
aF3.5416666666666665
aa(lp385
S'2017-01-18'
p386
aF1.2222222222222223
aF3.611111111111111
aa(lp387
S'2017-01-19'
p388
aF1.7777777777777777
aF1.5714285714285714
aa(lp389
S'2017-03-21'
p390
aF1.5443037974683544
aF2.3333333333333335
aa(lp391
S'2017-03-20'
p392
aF1.4457831325301205
aF4.086956521739131
aa(lp393
S'2016-07-19'
p394
aF1.4691358024691359
aF2.5555555555555554
aa(lp395
S'2017-03-22'
p396
aF1.02020202020202
aF1.2619047619047619
aa(lp397
S'2017-03-25'
p398
aF0.8018018018018018
aF1.9375
aa(lp399
S'2017-03-24'
p400
aF1.7638888888888888
aF1.9714285714285715
aa(lp401
S'2017-03-27'
p402
aF1.1505376344086022
aF2.34375
aa(lp403
S'2017-03-26'
p404
aF1.5316455696202531
aF4.190476190476191
aa(lp405
S'2017-03-29'
p406
aF1.5316455696202531
aF1.564102564102564
aa(lp407
S'2017-03-28'
p408
aF2.0303030303030303
aF2.9583333333333335
aa(lp409
S'2016-11-09'
p410
aF2.3333333333333335
aF2.5454545454545454
aa(lp411
S'2016-11-08'
p412
aF1.8169014084507042
aF3.0526315789473686
aa(lp413
S'2016-11-01'
p414
aF1.313953488372093
aF3.5625
aa(lp415
S'2016-11-03'
p416
aF1.5974025974025974
aF1.6363636363636365
aa(lp417
S'2016-11-02'
p418
aF1.4390243902439024
aF4.277777777777778
aa(lp419
S'2016-11-05'
p420
aF1.631578947368421
aF3.5
aa(lp421
S'2016-11-04'
p422
aF1.0721649484536082
aF2.2413793103448274
aa(lp423
S'2016-11-07'
p424
aF1.1868131868131868
aF4.0
aa(lp425
S'2016-11-06'
p426
aF1.5
aF3.3684210526315788
aa(lp427
S'2016-08-10'
p428
aF2.4482758620689653
aF2.2857142857142856
aa(lp429
S'2016-08-11'
p430
aF1.2727272727272727
aF1.75
aa(lp431
S'2016-08-12'
p432
aF1.631578947368421
aF3.5
aa(lp433
S'2016-08-13'
p434
aF1.7027027027027026
aF4.235294117647059
aa(lp435
S'2016-08-14'
p436
aF1.5316455696202531
aF3.95
aa(lp437
S'2016-08-15'
p438
aF1.2727272727272727
aF3.0869565217391304
aa(lp439
S'2016-08-16'
p440
aF1.4390243902439024
aF4.473684210526316
aa(lp441
S'2016-08-17'
p442
aF1.5
aF3.0
aa(lp443
S'2016-08-18'
p444
aF1.7397260273972603
aF2.1481481481481484
aa(lp445
S'2016-08-19'
p446
aF1.4096385542168675
aF4.111111111111111
aa(lp447
S'2017-02-17'
p448
aF1.3255813953488371
aF4.882352941176471
aa(lp449
S'2017-02-16'
p450
aF3.25531914893617
aF2.2857142857142856
aa(lp451
S'2017-02-15'
p452
aF1.5316455696202531
aF3.25
aa(lp453
S'2017-02-14'
p454
aF1.6666666666666667
aF2.4444444444444446
aa(lp455
S'2017-02-13'
p456
aF1.380952380952381
aF3.1363636363636362
aa(lp457
S'2017-02-12'
p458
aF1.5974025974025974
aF3.238095238095238
aa(lp459
S'2017-02-11'
p460
aF1.173913043478261
aF1.45
aa(lp461
S'2017-02-10'
p462
aF0.9230769230769231
aF1.565217391304348
aa(lp463
S'2016-04-21'
p464
aF1.7027027027027026
aF2.8214285714285716
aa(lp465
S'2016-04-23'
p466
aF1.3255813953488371
aF1.4473684210526316
aa(lp467
S'2016-04-22'
p468
aF1.5443037974683544
aF2.5416666666666665
aa(lp469
S'2016-04-25'
p470
aF1.2988505747126438
aF1.896551724137931
aa(lp471
S'2016-04-24'
p472
aF2.6363636363636362
aF3.857142857142857
aa(lp473
S'2017-02-19'
p474
aF0.9801980198019802
aF3.0833333333333335
aa(lp475
S'2017-02-18'
p476
aF1.8571428571428572
aF2.161290322580645
aa(lp477
S'2016-10-19'
p478
aF1.8169014084507042
aF3.2
aa(lp479
S'2016-10-18'
p480
aF0.8518518518518519
aF1.7692307692307692
aa(lp481
S'2016-10-15'
p482
aF0.08695652173913043
aF25.857142857142858
aa(lp483
S'2016-10-14'
p484
aF1.564102564102564
aF5.666666666666667
aa(lp485
S'2016-10-17'
p486
aF0.7241379310344828
aF3.0714285714285716
aa(lp487
S'2016-10-16'
p488
aF1.2727272727272727
aF3.1052631578947367
aa(lp489
S'2016-10-11'
p490
aF1.5974025974025974
aF1.8666666666666667
aa(lp491
S'2016-10-10'
p492
aF1.5
aF1.7428571428571429
aa(lp493
S'2016-10-13'
p494
aF1.5
aF2.2962962962962963
aa(lp495
S'2016-10-12'
p496
aF1.5
aF1.55
aa(lp497
S'2017-04-15'
p498
aF1.2222222222222223
aF2.761904761904762
aa(lp499
S'2017-04-14'
p500
aF1.9411764705882353
aF3.3
aa(lp501
S'2017-04-17'
p502
aF1.2988505747126438
aF1.7575757575757576
aa(lp503
S'2017-04-16'
p504
aF2.389830508474576
aF1.7941176470588236
aa(lp505
S'2016-12-01'
p506
aF1.2988505747126438
aF3.5714285714285716
aa(lp507
S'2017-04-13'
p508
aF1.5974025974025974
aF3.25
aa(lp509
S'2017-04-12'
p510
aF1.7397260273972603
aF3.4285714285714284
aa(lp511
S'2016-07-11'
p512
aF1.5
aF3.789473684210526
aa(lp513
S'2016-07-10'
p514
aF1.0408163265306123
aF2.8846153846153846
aa(lp515
S'2016-07-13'
p516
aF1.2988505747126438
aF3.12
aa(lp517
S'2016-07-12'
p518
aF0.941747572815534
aF2.3703703703703702
aa(lp519
S'2016-07-15'
p520
aF2.1587301587301586
aF2.392857142857143
aa(lp521
S'2016-07-14'
p522
aF2.076923076923077
aF1.8666666666666667
aa(lp523
S'2016-05-19'
p524
aF1.8985507246376812
aF2.3076923076923075
aa(lp525
S'2016-05-18'
p526
aF1.2222222222222223
aF1.5853658536585367
aa(lp527
S'2016-05-17'
p528
aF1.7027027027027026
aF3.44
aa(lp529
S'2016-05-16'
p530
aF1.631578947368421
aF2.9615384615384617
aa(lp531
S'2016-05-15'
p532
aF1.4096385542168675
aF4.555555555555555
aa(lp533
S'2016-05-14'
p534
aF1.631578947368421
aF2.6363636363636362
aa(lp535
S'2016-05-13'
p536
aF1.3255813953488371
aF1.763157894736842
aa(lp537
S'2016-05-12'
p538
aF0.5079365079365079
aF3.0
aa(lp539
S'2016-05-11'
p540
aF1.7397260273972603
aF1.542857142857143
aa(lp541
S'2016-12-09'
p542
aF1.5316455696202531
aF4.8
aa(lp543
S'2016-06-09'
p544
aF1.8985507246376812
aF3.090909090909091
aa(lp545
S'2016-06-08'
p546
aF1.4096385542168675
aF4.866666666666666
aa(lp547
S'2016-06-05'
p548
aF2.076923076923077
aF2.375
aa(lp549
S'2016-06-04'
p550
aF1.173913043478261
aF2.25
aa(lp551
S'2016-06-07'
p552
aF1.3529411764705883
aF2.057142857142857
aa(lp553
S'2016-06-06'
p554
aF1.4096385542168675
aF2.7083333333333335
aa(lp555
S'2016-06-01'
p556
aF1.2702702702702702
aF1.7037037037037037
aa(lp557
S'2016-06-03'
p558
aF1.5
aF3.0
aa(lp559
S'2016-06-02'
p560
aF2.076923076923077
aF2.3448275862068964
aa(lp561
S'2017-02-28'
p562
aF1.2222222222222223
aF1.8421052631578947
aa(lp563
S'2017-02-26'
p564
aF1.5
aF3.857142857142857
aa(lp565
S'2017-02-27'
p566
aF0.8691588785046729
aF2.7037037037037037
aa(lp567
S'2017-02-24'
p568
aF1.4268292682926829
aF2.3333333333333335
aa(lp569
S'2017-02-25'
p570
aF1.7777777777777777
aF3.5416666666666665
aa(lp571
S'2017-02-22'
p572
aF0.8272727272727273
aF4.666666666666667
aa(lp573
S'2017-02-23'
p574
aF1.2988505747126438
aF3.111111111111111
aa(lp575
S'2017-02-20'
p576
aF1.0
aF2.2333333333333334
aa(lp577
S'2017-02-21'
p578
aF1.380952380952381
aF2.8181818181818183
aa(lp579
S'2016-04-29'
p580
aF1.7397260273972603
aF3.0833333333333335
aa(lp581
S'2016-04-28'
p582
aF0.7008547008547008
aF3.689655172413793
aa(lp583
S'2016-09-30'
p584
aF1.1505376344086022
aF5.388888888888889
aa(lp585
S'2016-12-31'
p586
aF1.173913043478261
aF2.5714285714285716
aa(lp587
S'2016-12-30'
p588
aF1.4691358024691359
aF2.730769230769231
aa(lp589
S'2017-04-04'
p590
aF0.7241379310344828
aF2.392857142857143
aa(lp591
S'2017-04-05'
p592
aF0.9313725490196079
aF2.4782608695652173
aa(lp593
S'2017-04-02'
p594
aF1.7397260273972603
aF2.48
aa(lp595
S'2017-04-03'
p596
aF1.4691358024691359
aF2.2333333333333334
aa(lp597
S'2017-04-01'
p598
aF1.2988505747126438
aF1.9393939393939394
aa(lp599
S'2017-04-08'
p600
aF0.7241379310344828
aF2.869565217391304
aa(lp601
S'2017-04-09'
p602
aF1.3411764705882352
aF2.3448275862068964
aa(lp603
S'2017-01-05'
p604
aF1.380952380952381
aF3.625
aa(lp605
S'2017-01-04'
p606
aF1.1978021978021978
aF4.105263157894737
aa(lp607
S'2017-01-07'
p608
aF1.4691358024691359
aF2.269230769230769
aa(lp609
S'2017-01-06'
p610
aF1.7397260273972603
aF1.8709677419354838
aa(lp611
S'2017-01-01'
p612
aF1.7397260273972603
aF1.9310344827586208
aa(lp613
S'2016-04-27'
p614
aF1.8571428571428572
aF3.15
aa(lp615
S'2017-01-03'
p616
aF1.380952380952381
aF3.0416666666666665
aa(lp617
S'2017-01-02'
p618
aF1.0618556701030928
aF1.75
aa(lp619
S'2016-04-26'
p620
aF1.631578947368421
aF2.84
aa(lp621
S'2017-01-09'
p622
aF1.4096385542168675
aF4.352941176470588
aa(lp623
S'2017-01-08'
p624
aF1.6666666666666667
aF1.7058823529411764
aa(lp625
S'2016-05-26'
p626
aF1.5974025974025974
aF3.260869565217391
aa(lp627
S'2016-05-27'
p628
aF2.225806451612903
aF1.4736842105263157
aa(lp629
S'2016-05-24'
p630
aF1.8028169014084507
aF5.125
aa(lp631
S'2016-05-25'
p632
aF1.8985507246376812
aF3.4285714285714284
aa(lp633
S'2016-05-22'
p634
aF1.564102564102564
aF2.4285714285714284
aa(lp635
S'2016-05-23'
p636
aF1.8169014084507042
aF3.0
aa(lp637
S'2016-05-20'
p638
aF1.9411764705882353
aF1.8108108108108107
aa(lp639
S'2016-05-21'
p640
aF1.4216867469879517
aF2.1515151515151514
aa(lp641
S'2016-07-31'
p642
aF1.8169014084507042
aF3.142857142857143
aa(lp643
S'2016-05-28'
p644
aF1.631578947368421
aF2.03125
aa(lp645
S'2016-05-29'
p646
aF1.5844155844155845
aF2.4285714285714284
aa(lp647
S'2017-03-14'
p648
aF1.6891891891891893
aF5.388888888888889
aa(lp649
S'2017-03-15'
p650
aF1.2222222222222223
aF2.5757575757575757
aa(lp651
S'2017-03-16'
p652
aF0.8867924528301887
aF2.740740740740741
aa(lp653
S'2016-11-11'
p654
aF1.0618556701030928
aF1.5
aa(lp655
S'2017-03-10'
p656
aF1.2988505747126438
aF1.3333333333333333
aa(lp657
S'2017-03-11'
p658
aF0.8181818181818182
aF0.7692307692307693
aa(lp659
S'2017-03-12'
p660
aF2.0615384615384613
aF1.972972972972973
aa(lp661
S'2017-03-13'
p662
aF1.6103896103896105
aF3.727272727272727
aa(lp663
S'2017-03-18'
p664
aF1.4096385542168675
aF3.6818181818181817
aa(lp665
S'2017-03-19'
p666
aF1.127659574468085
aF1.7272727272727273
aa(lp667
S'2016-11-30'
p668
aF1.1978021978021978
aF2.4615384615384617
aa(lp669
S'2016-08-07'
p670
aF1.8840579710144927
aF3.2941176470588234
aa(lp671
S'2016-08-06'
p672
aF3.0816326530612246
aF2.3333333333333335
aa(lp673
S'2016-08-05'
p674
aF1.451219512195122
aF2.68
aa(lp675
S'2016-08-04'
p676
aF1.7777777777777777
aF1.7777777777777777
aa(lp677
S'2016-08-03'
p678
aF1.2988505747126438
aF1.619047619047619
aa(lp679
S'2016-08-02'
p680
aF1.4096385542168675
aF1.2619047619047619
aa(lp681
S'2016-08-01'
p682
aF1.4096385542168675
aF3.2222222222222223
aa(lp683
S'2016-11-24'
p684
aF1.4096385542168675
aF4.166666666666667
aa(lp685
S'2016-08-09'
p686
aF1.9411764705882353
aF2.0
aa(lp687
S'2016-08-08'
p688
aF2.8461538461538463
aF3.210526315789474
aa(lp689
S'2016-04-16'
p690
aF1.0
aF0.0
aa(lp691
S'2016-10-20'
p692
aF1.631578947368421
aF3.1904761904761907
aa(lp693
S'2016-10-21'
p694
aF1.02020202020202
aF2.9473684210526314
aa(lp695
S'2016-10-22'
p696
aF1.9850746268656716
aF4.15
aa(lp697
S'2016-10-23'
p698
aF1.1978021978021978
aF2.230769230769231
aa(lp699
S'2016-10-24'
p700
aF1.2727272727272727
aF2.6
aa(lp701
S'2016-10-25'
p702
aF1.380952380952381
aF4.882352941176471
aa(lp703
S'2016-10-26'
p704
aF1.380952380952381
aF2.75
aa(lp705
S'2016-10-27'
p706
aF1.4390243902439024
aF2.2857142857142856
aa(lp707
S'2016-10-28'
p708
aF0.9801980198019802
aF2.32
aa(lp709
S'2016-10-29'
p710
aF1.3529411764705883
aF3.6666666666666665
aa(lp711
S'2016-07-24'
p712
aF2.4482758620689653
aF1.7941176470588236
aa(lp713
S'2016-07-25'
p714
aF1.5844155844155845
aF3.8333333333333335
aa(lp715
S'2016-07-26'
p716
aF1.564102564102564
aF2.8
aa(lp717
S'2016-07-27'
p718
aF1.564102564102564
aF2.3333333333333335
aa(lp719
S'2016-07-20'
p720
aF1.3529411764705883
aF3.0833333333333335
aa(lp721
S'2016-07-21'
p722
aF1.5
aF3.4347826086956523
aa(lp723
S'2016-07-22'
p724
aF1.7777777777777777
aF4.5
aa(lp725
S'2016-07-23'
p726
aF1.4216867469879517
aF2.76
aa(lp727
S'2016-07-28'
p728
aF1.5
aF2.107142857142857
aa(lp729
S'2016-07-29'
p730
aF1.7027027027027026
aF3.4
aa(lp731
S'2016-06-30'
p732
aF1.3255813953488371
aF4.714285714285714
aa.