(dp0
S'2016-05-16'
p1
(lp2
I124
aI76
aI77
aI26
asS'2016-08-30'
p3
(lp4
I114
aI86
aI82
aI25
asS'2016-08-31'
p5
(lp6
I119
aI81
aI72
aI21
asS'2016-09-08'
p7
(lp8
I106
aI95
aI57
aI39
asS'2016-09-09'
p9
(lp10
I113
aI87
aI77
aI16
asS'2016-09-04'
p11
(lp12
I117
aI83
aI75
aI19
asS'2016-09-05'
p13
(lp14
I111
aI89
aI72
aI15
asS'2016-09-06'
p15
(lp16
I115
aI85
aI70
aI18
asS'2016-09-07'
p17
(lp18
I81
aI45
aI44
aI19
asS'2016-09-01'
p19
(lp20
I132
aI68
aI64
aI21
asS'2016-09-02'
p21
(lp22
I127
aI73
aI66
aI26
asS'2016-09-03'
p23
(lp24
I121
aI79
aI56
aI16
asS'2017-04-15'
p25
(lp26
I110
aI90
aI58
aI21
asS'2016-12-05'
p27
(lp28
I98
aI102
aI86
aI27
asS'2017-04-17'
p29
(lp30
I113
aI87
aI58
aI33
asS'2016-12-07'
p31
(lp32
I120
aI80
aI73
aI34
asS'2017-04-11'
p33
(lp34
I117
aI83
aI51
aI15
asS'2017-04-10'
p35
(lp36
I110
aI90
aI69
aI31
asS'2016-12-02'
p37
(lp38
I100
aI100
aI66
aI22
asS'2017-04-12'
p39
(lp40
I127
aI73
aI72
aI21
asS'2017-01-30'
p41
(lp42
I99
aI101
aI67
aI28
asS'2017-01-31'
p43
(lp44
I110
aI90
aI83
aI30
asS'2017-04-19'
p45
(lp46
I113
aI87
aI74
aI34
asS'2017-04-18'
p47
(lp48
I120
aI80
aI66
aI26
asS'2017-03-09'
p49
(lp50
I62
aI138
aI46
aI10
asS'2017-03-08'
p51
(lp52
I109
aI91
aI77
aI38
asS'2016-05-31'
p53
(lp54
I122
aI78
aI44
aI44
asS'2016-05-30'
p55
(lp56
I107
aI93
aI73
aI21
asS'2017-03-03'
p57
(lp58
I84
aI116
aI65
aI42
asS'2017-03-02'
p59
(lp60
I114
aI87
aI56
aI23
asS'2017-03-01'
p61
(lp62
I100
aI100
aI71
aI31
asS'2017-03-07'
p63
(lp64
I110
aI90
aI76
aI34
asS'2017-03-06'
p65
(lp66
I108
aI92
aI74
aI26
asS'2017-03-05'
p67
(lp68
I114
aI86
aI54
aI26
asS'2017-03-04'
p69
(lp70
I124
aI76
aI74
aI28
asS'2016-07-17'
p71
(lp72
I107
aI93
aI76
aI14
asS'2016-07-16'
p73
(lp74
I125
aI75
aI59
aI19
asS'2016-11-23'
p75
(lp76
I117
aI83
aI76
aI19
asS'2016-11-22'
p77
(lp78
I132
aI68
aI91
aI20
asS'2016-11-21'
p79
(lp80
I131
aI69
aI78
aI26
asS'2016-11-20'
p81
(lp82
I124
aI76
aI122
aI13
asS'2016-11-27'
p83
(lp84
I120
aI80
aI75
aI20
asS'2016-11-26'
p85
(lp86
I144
aI56
aI74
aI19
asS'2016-11-25'
p87
(lp88
I106
aI94
aI44
aI34
asS'2016-11-24'
p89
(lp90
I117
aI83
aI75
aI18
asS'2016-11-29'
p91
(lp92
I100
aI100
aI83
aI26
asS'2016-11-28'
p93
(lp94
I128
aI72
aI68
aI24
asS'2017-03-17'
p95
(lp96
I100
aI100
aI55
aI33
asS'2016-07-19'
p97
(lp98
I119
aI81
aI69
aI27
asS'2016-10-31'
p99
(lp100
I131
aI69
aI70
aI27
asS'2016-10-30'
p101
(lp102
I115
aI85
aI60
aI25
asS'2016-12-09'
p103
(lp104
I121
aI79
aI96
aI20
asS'2016-06-27'
p105
(lp106
I129
aI71
aI66
aI34
asS'2016-06-26'
p107
(lp108
I98
aI102
aI67
aI36
asS'2016-06-25'
p109
(lp110
I144
aI56
aI60
aI25
asS'2016-06-24'
p111
(lp112
I124
aI76
aI64
aI27
asS'2016-06-23'
p113
(lp114
I115
aI85
aI77
aI29
asS'2016-06-22'
p115
(lp116
I121
aI79
aI80
aI22
asS'2016-06-21'
p117
(lp118
I109
aI91
aI65
aI23
asS'2016-06-20'
p119
(lp120
I113
aI87
aI69
aI20
asS'2016-06-29'
p121
(lp122
I114
aI86
aI72
aI22
asS'2016-06-28'
p123
(lp124
I136
aI64
aI52
aI24
asS'2017-03-30'
p125
(lp126
I134
aI66
aI64
aI28
asS'2017-03-31'
p127
(lp128
I118
aI82
aI57
aI24
asS'2016-12-19'
p129
(lp130
I116
aI84
aI76
aI28
asS'2016-11-18'
p131
(lp132
I116
aI84
aI78
aI28
asS'2016-11-19'
p133
(lp134
I129
aI71
aI45
aI25
asS'2016-11-12'
p135
(lp136
I138
aI62
aI59
aI21
asS'2016-11-13'
p137
(lp138
I139
aI61
aI55
aI27
asS'2016-11-10'
p139
(lp140
I125
aI75
aI42
aI34
asS'2016-07-30'
p141
(lp142
I141
aI59
aI75
aI29
asS'2016-11-16'
p143
(lp144
I119
aI81
aI92
aI22
asS'2016-11-17'
p145
(lp146
I123
aI77
aI71
aI26
asS'2016-11-14'
p147
(lp148
I121
aI79
aI62
aI28
asS'2016-11-15'
p149
(lp150
I117
aI83
aI56
aI38
asS'2017-04-20'
p151
(lp152
I121
aI79
aI64
aI32
asS'2016-12-11'
p153
(lp154
I119
aI81
aI65
aI28
asS'2016-09-18'
p155
(lp156
I120
aI79
aI72
aI15
asS'2016-08-29'
p157
(lp158
I135
aI65
aI61
aI22
asS'2016-08-28'
p159
(lp160
I117
aI83
aI53
aI22
asS'2016-08-25'
p161
(lp162
I128
aI72
aI68
aI27
asS'2016-08-24'
p163
(lp164
I125
aI75
aI71
aI27
asS'2016-08-27'
p165
(lp166
I102
aI98
aI68
aI26
asS'2016-08-26'
p167
(lp168
I125
aI75
aI69
aI27
asS'2016-08-21'
p169
(lp170
I124
aI76
aI58
aI22
asS'2016-08-20'
p171
(lp172
I127
aI73
aI71
aI30
asS'2016-08-23'
p173
(lp174
I104
aI96
aI67
aI29
asS'2016-08-22'
p175
(lp176
I107
aI93
aI80
aI29
asS'2017-02-01'
p177
(lp178
I122
aI80
aI79
aI28
asS'2017-02-02'
p179
(lp180
I108
aI92
aI69
aI28
asS'2017-02-03'
p181
(lp182
I107
aI93
aI55
aI36
asS'2017-02-04'
p183
(lp184
I89
aI111
aI66
aI34
asS'2017-02-05'
p185
(lp186
I94
aI106
aI55
aI22
asS'2017-02-06'
p187
(lp188
I61
aI137
aI38
aI98
asS'2017-02-07'
p189
(lp190
I106
aI94
aI61
aI42
asS'2017-02-08'
p191
(lp192
I85
aI115
aI73
aI33
asS'2017-02-09'
p193
(lp194
I129
aI71
aI67
aI23
asS'2016-04-30'
p195
(lp196
I150
aI50
aI73
aI33
asS'2016-10-08'
p197
(lp198
I120
aI80
aI49
aI25
asS'2016-10-09'
p199
(lp200
I134
aI66
aI59
aI22
asS'2016-10-06'
p201
(lp202
I115
aI85
aI68
aI28
asS'2016-10-07'
p203
(lp204
I128
aI72
aI64
aI35
asS'2016-10-04'
p205
(lp206
I121
aI79
aI61
aI29
asS'2016-10-05'
p207
(lp208
I114
aI86
aI65
aI40
asS'2016-10-02'
p209
(lp210
I147
aI53
aI63
aI30
asS'2016-10-03'
p211
(lp212
I135
aI64
aI70
aI22
asS'2016-10-01'
p213
(lp214
I127
aI73
aI55
aI42
asS'2016-09-13'
p215
(lp216
I116
aI84
aI79
aI25
asS'2016-09-12'
p217
(lp218
I126
aI74
aI59
aI30
asS'2016-09-11'
p219
(lp220
I140
aI60
aI89
aI20
asS'2016-09-10'
p221
(lp222
I113
aI87
aI61
aI27
asS'2016-09-17'
p223
(lp224
I119
aI81
aI91
aI26
asS'2016-09-16'
p225
(lp226
I115
aI85
aI65
aI30
asS'2016-09-15'
p227
(lp228
I115
aI85
aI60
aI18
asS'2016-09-14'
p229
(lp230
I115
aI85
aI65
aI20
asS'2016-12-13'
p231
(lp232
I106
aI94
aI67
aI21
asS'2016-12-12'
p233
(lp234
I118
aI82
aI61
aI28
asS'2016-09-19'
p235
(lp236
I117
aI83
aI72
aI32
asS'2016-12-10'
p237
(lp238
I125
aI75
aI69
aI26
asS'2016-12-17'
p239
(lp240
I76
aI124
aI59
aI44
asS'2016-12-16'
p241
(lp242
I119
aI81
aI57
aI25
asS'2016-12-15'
p243
(lp244
I118
aI82
aI64
aI34
asS'2016-12-14'
p245
(lp246
I117
aI82
aI65
aI23
asS'2017-01-29'
p247
(lp248
I119
aI81
aI65
aI43
asS'2017-01-28'
p249
(lp250
I99
aI101
aI50
aI59
asS'2017-01-27'
p251
(lp252
I139
aI61
aI72
aI15
asS'2017-01-26'
p253
(lp254
I107
aI93
aI83
aI30
asS'2017-01-25'
p255
(lp256
I124
aI76
aI64
aI33
asS'2017-01-24'
p257
(lp258
I116
aI84
aI76
aI21
asS'2017-01-23'
p259
(lp260
I132
aI68
aI75
aI21
asS'2017-01-22'
p261
(lp262
I126
aI74
aI76
aI14
asS'2017-01-21'
p263
(lp264
I143
aI57
aI62
aI14
asS'2017-01-20'
p265
(lp266
I117
aI83
aI75
aI13
asS'2016-07-02'
p267
(lp268
I157
aI43
aI51
aI13
asS'2016-07-03'
p269
(lp270
I117
aI83
aI68
aI30
asS'2016-07-01'
p271
(lp272
I112
aI88
aI69
aI22
asS'2016-07-06'
p273
(lp274
I124
aI76
aI64
aI17
asS'2016-07-07'
p275
(lp276
I115
aI85
aI61
aI24
asS'2016-07-04'
p277
(lp278
I137
aI63
aI63
aI18
asS'2016-07-05'
p279
(lp280
I114
aI86
aI82
aI14
asS'2016-05-01'
p281
(lp282
I130
aI70
aI67
aI31
asS'2016-07-08'
p283
(lp284
I126
aI75
aI66
aI18
asS'2016-07-09'
p285
(lp286
I124
aI76
aI75
aI21
asS'2016-05-04'
p287
(lp288
I118
aI82
aI66
aI22
asS'2016-05-05'
p289
(lp290
I125
aI75
aI69
aI29
asS'2016-05-06'
p291
(lp292
I131
aI69
aI57
aI26
asS'2016-05-07'
p293
(lp294
I132
aI68
aI78
aI34
asS'2016-06-18'
p295
(lp296
I128
aI72
aI70
aI27
asS'2016-06-19'
p297
(lp298
I158
aI42
aI90
aI22
asS'2016-06-16'
p299
(lp300
I119
aI81
aI62
aI31
asS'2016-06-17'
p301
(lp302
I119
aI81
aI73
aI25
asS'2016-06-14'
p303
(lp304
I131
aI69
aI53
aI40
asS'2016-06-15'
p305
(lp306
I108
aI92
aI67
aI36
asS'2016-06-12'
p307
(lp308
I61
aI139
aI129
aI9
asS'2016-06-13'
p309
(lp310
I129
aI71
aI70
aI28
asS'2016-06-10'
p311
(lp312
I122
aI78
aI62
aI29
asS'2016-06-11'
p313
(lp314
I123
aI78
aI74
aI23
asS'2016-05-08'
p315
(lp316
I135
aI65
aI67
aI20
asS'2016-05-09'
p317
(lp318
I126
aI74
aI57
aI25
asS'2016-05-02'
p319
(lp320
I119
aI81
aI58
aI29
asS'2016-05-03'
p321
(lp322
I114
aI86
aI52
aI42
asS'2016-12-18'
p323
(lp324
I104
aI96
aI72
aI30
asS'2016-09-28'
p325
(lp326
I103
aI97
aI66
aI24
asS'2016-09-29'
p327
(lp328
I125
aI75
aI68
aI26
asS'2016-09-22'
p329
(lp330
I117
aI83
aI80
aI23
asS'2016-09-23'
p331
(lp332
I108
aI92
aI78
aI21
asS'2016-09-20'
p333
(lp334
I134
aI66
aI70
aI26
asS'2016-09-21'
p335
(lp336
I109
aI91
aI80
aI25
asS'2016-09-26'
p337
(lp338
I115
aI85
aI58
aI32
asS'2016-09-27'
p339
(lp340
I108
aI92
aI60
aI29
asS'2016-09-24'
p341
(lp342
I129
aI71
aI72
aI21
asS'2016-09-25'
p343
(lp344
I113
aI87
aI57
aI36
asS'2016-12-22'
p345
(lp346
I100
aI100
aI72
aI40
asS'2016-12-23'
p347
(lp348
I112
aI88
aI52
aI25
asS'2016-12-20'
p349
(lp350
I133
aI67
aI70
aI22
asS'2016-12-21'
p351
(lp352
I106
aI94
aI68
aI29
asS'2016-12-26'
p353
(lp354
I111
aI89
aI75
aI25
asS'2016-12-27'
p355
(lp356
I134
aI66
aI67
aI17
asS'2016-12-24'
p357
(lp358
I118
aI82
aI60
aI27
asS'2016-12-25'
p359
(lp360
I116
aI84
aI76
aI22
asS'2016-12-28'
p361
(lp362
I122
aI78
aI72
aI27
asS'2016-12-29'
p363
(lp364
I97
aI103
aI60
aI27
asS'2017-01-16'
p365
(lp366
I122
aI78
aI66
aI27
asS'2017-01-17'
p367
(lp368
I123
aI77
aI56
aI24
asS'2017-01-14'
p369
(lp370
I121
aI79
aI77
aI38
asS'2017-01-15'
p371
(lp372
I111
aI89
aI75
aI25
asS'2017-01-12'
p373
(lp374
I105
aI95
aI56
aI17
asS'2017-01-13'
p375
(lp376
I113
aI87
aI57
aI32
asS'2017-01-10'
p377
(lp378
I105
aI95
aI72
aI31
asS'2017-01-11'
p379
(lp380
I118
aI82
aI85
aI24
asS'2017-01-18'
p381
(lp382
I110
aI90
aI65
aI18
asS'2017-01-19'
p383
(lp384
I128
aI72
aI44
aI28
asS'2017-03-21'
p385
(lp386
I122
aI79
aI63
aI27
asS'2017-03-20'
p387
(lp388
I120
aI83
aI94
aI23
asS'2017-03-23'
p389
(lp390
I117
aI83
aI64
aI34
asS'2017-03-22'
p391
(lp392
I101
aI99
aI53
aI42
asS'2017-03-25'
p393
(lp394
I89
aI111
aI62
aI32
asS'2017-03-24'
p395
(lp396
I127
aI72
aI69
aI35
asS'2017-03-27'
p397
(lp398
I107
aI93
aI75
aI32
asS'2017-03-26'
p399
(lp400
I121
aI79
aI88
aI21
asS'2017-03-29'
p401
(lp402
I121
aI79
aI61
aI39
asS'2017-03-28'
p403
(lp404
I134
aI66
aI71
aI24
asS'2016-11-09'
p405
(lp406
I140
aI60
aI56
aI22
asS'2016-11-08'
p407
(lp408
I129
aI71
aI58
aI19
asS'2016-11-01'
p409
(lp410
I113
aI86
aI57
aI16
asS'2016-11-03'
p411
(lp412
I123
aI77
aI54
aI33
asS'2016-11-02'
p413
(lp414
I118
aI82
aI77
aI18
asS'2016-11-05'
p415
(lp416
I124
aI76
aI77
aI22
asS'2016-11-04'
p417
(lp418
I104
aI97
aI65
aI29
asS'2016-11-07'
p419
(lp420
I108
aI91
aI76
aI19
asS'2016-11-06'
p421
(lp422
I120
aI80
aI64
aI19
asS'2016-07-18'
p423
(lp424
I108
aI92
aI76
aI20
asS'2016-08-10'
p425
(lp426
I142
aI58
aI64
aI28
asS'2016-08-11'
p427
(lp428
I112
aI88
aI56
aI32
asS'2016-08-12'
p429
(lp430
I124
aI76
aI77
aI22
asS'2016-08-13'
p431
(lp432
I126
aI74
aI72
aI17
asS'2016-08-14'
p433
(lp434
I121
aI79
aI79
aI20
asS'2016-08-15'
p435
(lp436
I112
aI88
aI71
aI23
asS'2016-08-16'
p437
(lp438
I118
aI82
aI85
aI19
asS'2016-08-17'
p439
(lp440
I120
aI80
aI72
aI24
asS'2016-08-18'
p441
(lp442
I127
aI73
aI58
aI27
asS'2016-08-19'
p443
(lp444
I117
aI83
aI74
aI18
asS'2016-04-29'
p445
(lp446
I127
aI73
aI74
aI24
asS'2017-02-16'
p447
(lp448
I153
aI47
aI64
aI28
asS'2017-02-15'
p449
(lp450
I121
aI79
aI65
aI20
asS'2017-02-14'
p451
(lp452
I125
aI75
aI66
aI27
asS'2017-02-13'
p453
(lp454
I116
aI84
aI69
aI22
asS'2017-02-12'
p455
(lp456
I123
aI77
aI68
aI21
asS'2017-02-11'
p457
(lp458
I108
aI92
aI58
aI40
asS'2017-02-10'
p459
(lp460
I96
aI104
aI72
aI46
asS'2016-04-21'
p461
(lp462
I126
aI74
aI79
aI28
asS'2016-04-23'
p463
(lp464
I114
aI86
aI55
aI38
asS'2016-04-22'
p465
(lp466
I122
aI79
aI61
aI24
asS'2016-04-25'
p467
(lp468
I113
aI87
aI55
aI29
asS'2016-04-24'
p469
(lp470
I145
aI55
aI81
aI21
asS'2016-04-27'
p471
(lp472
I130
aI70
aI63
aI20
asS'2017-02-18'
p473
(lp474
I130
aI70
aI67
aI31
asS'2016-10-19'
p475
(lp476
I129
aI71
aI64
aI20
asS'2016-10-18'
p477
(lp478
I92
aI108
aI69
aI39
asS'2016-10-15'
p479
(lp480
I16
aI184
aI181
aI7
asS'2016-10-14'
p481
(lp482
I122
aI78
aI85
aI15
asS'2016-10-17'
p483
(lp484
I84
aI116
aI86
aI28
asS'2016-10-16'
p485
(lp486
I112
aI88
aI59
aI19
asS'2016-10-11'
p487
(lp488
I123
aI77
aI56
aI30
asS'2016-10-10'
p489
(lp490
I120
aI80
aI61
aI35
asS'2016-10-13'
p491
(lp492
I120
aI80
aI62
aI27
asS'2016-10-12'
p493
(lp494
I120
aI80
aI62
aI40
asS'2016-12-04'
p495
(lp496
I136
aI64
aI67
aI16
asS'2017-04-14'
p497
(lp498
I132
aI68
aI66
aI20
asS'2016-12-06'
p499
(lp500
I125
aI75
aI56
aI27
asS'2017-04-16'
p501
(lp502
I141
aI59
aI61
aI34
asS'2016-12-01'
p503
(lp504
I113
aI87
aI75
aI21
asS'2017-04-13'
p505
(lp506
I123
aI77
aI65
aI20
asS'2016-12-03'
p507
(lp508
I111
aI89
aI81
aI25
asS'2016-07-11'
p509
(lp510
I120
aI80
aI72
aI19
asS'2016-07-10'
p511
(lp512
I102
aI98
aI75
aI26
asS'2016-07-13'
p513
(lp514
I113
aI87
aI78
aI25
asS'2016-07-12'
p515
(lp516
I97
aI103
aI64
aI27
asS'2016-07-15'
p517
(lp518
I136
aI63
aI67
aI28
asS'2016-07-14'
p519
(lp520
I135
aI65
aI56
aI30
asS'2016-05-19'
p521
(lp522
I131
aI69
aI60
aI26
asS'2016-05-18'
p523
(lp524
I110
aI90
aI65
aI41
asS'2016-05-17'
p525
(lp526
I126
aI74
aI86
aI25
asS'2016-12-08'
p527
(lp528
I106
aI95
aI83
aI27
asS'2016-05-15'
p529
(lp530
I117
aI83
aI82
aI18
asS'2016-05-14'
p531
(lp532
I124
aI76
aI58
aI22
asS'2016-05-13'
p533
(lp534
I114
aI86
aI67
aI38
asS'2016-05-12'
p535
(lp536
I32
aI63
aI51
aI17
asS'2016-05-11'
p537
(lp538
I127
aI73
aI54
aI35
asS'2016-05-10'
p539
(lp540
I126
aI74
aI69
aI34
asS'2016-06-09'
p541
(lp542
I131
aI69
aI68
aI22
asS'2016-06-08'
p543
(lp544
I117
aI83
aI73
aI15
asS'2016-06-05'
p545
(lp546
I135
aI65
aI57
aI24
asS'2016-06-04'
p547
(lp548
I108
aI92
aI72
aI32
asS'2016-06-07'
p549
(lp550
I115
aI85
aI72
aI35
asS'2016-06-06'
p551
(lp552
I117
aI83
aI65
aI24
asS'2016-06-01'
p553
(lp554
I94
aI74
aI46
aI27
asS'2016-06-03'
p555
(lp556
I120
aI80
aI63
aI21
asS'2016-06-02'
p557
(lp558
I135
aI65
aI68
aI29
asS'2017-02-28'
p559
(lp560
I110
aI90
aI70
aI38
asS'2017-02-26'
p561
(lp562
I120
aI80
aI81
aI21
asS'2017-02-27'
p563
(lp564
I93
aI107
aI73
aI27
asS'2017-02-24'
p565
(lp566
I117
aI82
aI56
aI24
asS'2017-02-25'
p567
(lp568
I128
aI72
aI85
aI24
asS'2017-02-22'
p569
(lp570
I91
aI110
aI84
aI18
asS'2017-02-23'
p571
(lp572
I113
aI87
aI56
aI18
asS'2017-02-20'
p573
(lp574
I100
aI100
aI67
aI30
asS'2017-02-21'
p575
(lp576
I116
aI84
aI62
aI22
asS'2017-02-17'
p577
(lp578
I114
aI86
aI83
aI17
asS'2016-04-28'
p579
(lp580
I82
aI117
aI107
aI29
asS'2016-07-25'
p581
(lp582
I122
aI77
aI69
aI18
asS'2016-09-30'
p583
(lp584
I107
aI93
aI97
aI18
asS'2016-12-31'
p585
(lp586
I108
aI92
aI72
aI28
asS'2017-04-07'
p587
(lp588
I105
aI96
aI70
aI35
asS'2017-04-04'
p589
(lp590
I84
aI116
aI67
aI28
asS'2017-04-05'
p591
(lp592
I95
aI102
aI57
aI23
asS'2017-04-02'
p593
(lp594
I127
aI73
aI62
aI25
asS'2017-04-03'
p595
(lp596
I119
aI81
aI67
aI30
asS'2017-04-01'
p597
(lp598
I113
aI87
aI64
aI33
asS'2016-07-23'
p599
(lp600
I118
aI83
aI69
aI25
asS'2017-04-08'
p601
(lp602
I84
aI116
aI66
aI23
asS'2017-04-09'
p603
(lp604
I114
aI85
aI68
aI29
asS'2017-01-05'
p605
(lp606
I116
aI84
aI87
aI24
asS'2017-01-04'
p607
(lp608
I109
aI91
aI78
aI19
asS'2017-01-07'
p609
(lp610
I119
aI81
aI59
aI26
asS'2017-01-06'
p611
(lp612
I127
aI73
aI58
aI31
asS'2017-01-01'
p613
(lp614
I127
aI73
aI56
aI29
asS'2017-02-19'
p615
(lp616
I99
aI101
aI74
aI24
asS'2017-01-03'
p617
(lp618
I116
aI84
aI73
aI24
asS'2017-01-02'
p619
(lp620
I103
aI97
aI63
aI36
asS'2016-04-26'
p621
(lp622
I124
aI76
aI71
aI25
asS'2017-01-09'
p623
(lp624
I117
aI83
aI74
aI17
asS'2017-01-08'
p625
(lp626
I125
aI75
aI58
aI34
asS'2016-05-26'
p627
(lp628
I123
aI77
aI75
aI23
asS'2016-05-27'
p629
(lp630
I138
aI62
aI56
aI38
asS'2016-05-24'
p631
(lp632
I128
aI71
aI82
aI16
asS'2016-05-25'
p633
(lp634
I131
aI69
aI72
aI21
asS'2016-05-22'
p635
(lp636
I122
aI78
aI68
aI28
asS'2016-05-23'
p637
(lp638
I129
aI71
aI66
aI22
asS'2016-05-20'
p639
(lp640
I132
aI68
aI67
aI37
asS'2016-05-21'
p641
(lp642
I118
aI83
aI71
aI33
asS'2016-07-31'
p643
(lp644
I129
aI71
aI88
aI28
asS'2016-05-28'
p645
(lp646
I124
aI76
aI65
aI32
asS'2016-05-29'
p647
(lp648
I122
aI77
aI68
aI28
asS'2017-03-14'
p649
(lp650
I125
aI74
aI97
aI18
asS'2017-03-15'
p651
(lp652
I110
aI90
aI85
aI33
asS'2017-03-16'
p653
(lp654
I94
aI106
aI74
aI27
asS'2016-11-11'
p655
(lp656
I103
aI97
aI69
aI46
asS'2017-03-10'
p657
(lp658
I113
aI87
aI40
aI30
asS'2017-03-11'
p659
(lp660
I90
aI110
aI50
aI65
asS'2017-03-12'
p661
(lp662
I134
aI65
aI73
aI37
asS'2017-03-13'
p663
(lp664
I124
aI77
aI82
aI22
asS'2017-03-18'
p665
(lp666
I117
aI83
aI81
aI22
asS'2017-03-19'
p667
(lp668
I106
aI94
aI57
aI33
asS'2016-11-30'
p669
(lp670
I109
aI91
aI64
aI26
asS'2016-08-07'
p671
(lp672
I130
aI69
aI56
aI17
asS'2016-08-06'
p673
(lp674
I151
aI49
aI63
aI27
asS'2016-08-05'
p675
(lp676
I119
aI82
aI67
aI25
asS'2016-08-04'
p677
(lp678
I128
aI72
aI64
aI36
asS'2016-08-03'
p679
(lp680
I113
aI87
aI68
aI42
asS'2016-08-02'
p681
(lp682
I117
aI83
aI53
aI42
asS'2016-08-01'
p683
(lp684
I117
aI83
aI58
aI18
asS'2016-08-09'
p685
(lp686
I132
aI68
aI62
aI31
asS'2016-08-08'
p687
(lp688
I148
aI52
aI61
aI19
asS'2016-04-16'
p689
(lp690
I1
aI0
aI0
aI0
asS'2016-10-20'
p691
(lp692
I124
aI76
aI67
aI21
asS'2016-10-21'
p693
(lp694
I101
aI99
aI56
aI19
asS'2016-10-22'
p695
(lp696
I133
aI67
aI83
aI20
asS'2016-10-23'
p697
(lp698
I109
aI91
aI58
aI26
asS'2016-10-24'
p699
(lp700
I112
aI88
aI65
aI25
asS'2016-10-25'
p701
(lp702
I116
aI84
aI83
aI17
asS'2016-10-26'
p703
(lp704
I116
aI84
aI66
aI24
asS'2016-10-27'
p705
(lp706
I118
aI82
aI64
aI28
asS'2016-10-28'
p707
(lp708
I99
aI101
aI58
aI25
asS'2016-10-29'
p709
(lp710
I115
aI85
aI77
aI21
asS'2016-07-24'
p711
(lp712
I142
aI58
aI61
aI34
asS'2017-04-06'
p713
(lp714
I120
aI80
aI66
aI19
asS'2016-07-26'
p715
(lp716
I122
aI78
aI70
aI25
asS'2016-07-27'
p717
(lp718
I122
aI78
aI70
aI30
asS'2016-07-20'
p719
(lp720
I115
aI85
aI74
aI24
asS'2016-07-21'
p721
(lp722
I120
aI80
aI79
aI23
asS'2016-07-22'
p723
(lp724
I128
aI72
aI72
aI16
asS'2016-12-30'
p725
(lp726
I119
aI81
aI71
aI26
asS'2016-07-28'
p727
(lp728
I120
aI80
aI59
aI28
asS'2016-07-29'
p729
(lp730
I126
aI74
aI68
aI20
asS'2016-06-30'
p731
(lp732
I114
aI86
aI66
aI14
as.