(lp0
(lp1
S'2016-08-30'
p2
aI114
aI86
aI82
aI25
aa(lp3
S'2016-08-31'
p4
aI119
aI81
aI72
aI21
aa(lp5
S'2017-04-19'
p6
aI113
aI87
aI74
aI34
aa(lp7
S'2016-09-08'
p8
aI106
aI95
aI57
aI39
aa(lp9
S'2016-09-09'
p10
aI113
aI87
aI77
aI16
aa(lp11
S'2016-09-04'
p12
aI117
aI83
aI75
aI19
aa(lp13
S'2016-09-05'
p14
aI111
aI89
aI72
aI15
aa(lp15
S'2016-09-06'
p16
aI115
aI85
aI70
aI18
aa(lp17
S'2016-09-07'
p18
aI81
aI45
aI44
aI19
aa(lp19
S'2016-09-01'
p20
aI132
aI68
aI64
aI21
aa(lp21
S'2016-09-02'
p22
aI127
aI73
aI66
aI26
aa(lp23
S'2016-09-03'
p24
aI121
aI79
aI56
aI16
aa(lp25
S'2016-12-04'
p26
aI136
aI64
aI67
aI16
aa(lp27
S'2016-12-05'
p28
aI98
aI102
aI86
aI27
aa(lp29
S'2016-12-06'
p30
aI125
aI75
aI56
aI27
aa(lp31
S'2016-12-07'
p32
aI120
aI80
aI73
aI34
aa(lp33
S'2017-04-11'
p34
aI117
aI83
aI51
aI15
aa(lp35
S'2017-04-10'
p36
aI110
aI90
aI69
aI31
aa(lp37
S'2016-12-02'
p38
aI100
aI100
aI66
aI22
aa(lp39
S'2016-12-03'
p40
aI111
aI89
aI81
aI25
aa(lp41
S'2017-01-30'
p42
aI99
aI101
aI67
aI28
aa(lp43
S'2017-01-31'
p44
aI110
aI90
aI83
aI30
aa(lp45
S'2016-12-08'
p46
aI106
aI95
aI83
aI27
aa(lp47
S'2017-04-18'
p48
aI120
aI80
aI66
aI26
aa(lp49
S'2017-03-09'
p50
aI62
aI138
aI46
aI10
aa(lp51
S'2017-03-08'
p52
aI109
aI91
aI77
aI38
aa(lp53
S'2016-05-31'
p54
aI122
aI78
aI44
aI44
aa(lp55
S'2016-05-30'
p56
aI107
aI93
aI73
aI21
aa(lp57
S'2017-03-03'
p58
aI84
aI116
aI65
aI42
aa(lp59
S'2017-03-02'
p60
aI114
aI87
aI56
aI23
aa(lp61
S'2017-03-01'
p62
aI100
aI100
aI71
aI31
aa(lp63
S'2017-03-07'
p64
aI110
aI90
aI76
aI34
aa(lp65
S'2017-03-06'
p66
aI108
aI92
aI74
aI26
aa(lp67
S'2017-03-05'
p68
aI114
aI86
aI54
aI26
aa(lp69
S'2017-03-04'
p70
aI124
aI76
aI74
aI28
aa(lp71
S'2016-07-17'
p72
aI107
aI93
aI76
aI14
aa(lp73
S'2016-07-16'
p74
aI125
aI75
aI59
aI19
aa(lp75
S'2016-11-23'
p76
aI117
aI83
aI76
aI19
aa(lp77
S'2016-11-22'
p78
aI132
aI68
aI91
aI20
aa(lp79
S'2016-11-21'
p80
aI131
aI69
aI78
aI26
aa(lp81
S'2016-11-20'
p82
aI124
aI76
aI122
aI13
aa(lp83
S'2016-11-27'
p84
aI120
aI80
aI75
aI20
aa(lp85
S'2016-11-26'
p86
aI144
aI56
aI74
aI19
aa(lp87
S'2016-11-25'
p88
aI106
aI94
aI44
aI34
aa(lp89
S'2016-07-18'
p90
aI108
aI92
aI76
aI20
aa(lp91
S'2016-11-29'
p92
aI100
aI100
aI83
aI26
aa(lp93
S'2016-11-28'
p94
aI128
aI72
aI68
aI24
aa(lp95
S'2017-03-17'
p96
aI100
aI100
aI55
aI33
aa(lp97
S'2016-05-10'
p98
aI126
aI74
aI69
aI34
aa(lp99
S'2016-10-31'
p100
aI131
aI69
aI70
aI27
aa(lp101
S'2016-10-30'
p102
aI115
aI85
aI60
aI25
aa(lp103
S'2017-04-06'
p104
aI120
aI80
aI66
aI19
aa(lp105
S'2017-04-07'
p106
aI105
aI96
aI70
aI35
aa(lp107
S'2016-06-27'
p108
aI129
aI71
aI66
aI34
aa(lp109
S'2016-06-26'
p110
aI98
aI102
aI67
aI36
aa(lp111
S'2016-06-25'
p112
aI144
aI56
aI60
aI25
aa(lp113
S'2016-06-24'
p114
aI124
aI76
aI64
aI27
aa(lp115
S'2016-06-23'
p116
aI115
aI85
aI77
aI29
aa(lp117
S'2016-06-22'
p118
aI121
aI79
aI80
aI22
aa(lp119
S'2016-06-21'
p120
aI109
aI91
aI65
aI23
aa(lp121
S'2016-06-20'
p122
aI113
aI87
aI69
aI20
aa(lp123
S'2016-06-29'
p124
aI114
aI86
aI72
aI22
aa(lp125
S'2016-06-28'
p126
aI136
aI64
aI52
aI24
aa(lp127
S'2017-03-30'
p128
aI134
aI66
aI64
aI28
aa(lp129
S'2017-03-31'
p130
aI118
aI82
aI57
aI24
aa(lp131
S'2016-12-19'
p132
aI116
aI84
aI76
aI28
aa(lp133
S'2016-11-18'
p134
aI116
aI84
aI78
aI28
aa(lp135
S'2016-11-19'
p136
aI129
aI71
aI45
aI25
aa(lp137
S'2016-11-12'
p138
aI138
aI62
aI59
aI21
aa(lp139
S'2016-11-13'
p140
aI139
aI61
aI55
aI27
aa(lp141
S'2016-11-10'
p142
aI125
aI75
aI42
aI34
aa(lp143
S'2016-07-30'
p144
aI141
aI59
aI75
aI29
aa(lp145
S'2016-11-16'
p146
aI119
aI81
aI92
aI22
aa(lp147
S'2016-11-17'
p148
aI123
aI77
aI71
aI26
aa(lp149
S'2016-11-14'
p150
aI121
aI79
aI62
aI28
aa(lp151
S'2016-11-15'
p152
aI117
aI83
aI56
aI38
aa(lp153
S'2017-04-20'
p154
aI121
aI79
aI64
aI32
aa(lp155
S'2016-09-19'
p156
aI117
aI83
aI72
aI32
aa(lp157
S'2016-09-18'
p158
aI120
aI79
aI72
aI15
aa(lp159
S'2016-08-29'
p160
aI135
aI65
aI61
aI22
aa(lp161
S'2016-08-28'
p162
aI117
aI83
aI53
aI22
aa(lp163
S'2016-08-25'
p164
aI128
aI72
aI68
aI27
aa(lp165
S'2016-08-24'
p166
aI125
aI75
aI71
aI27
aa(lp167
S'2016-08-27'
p168
aI102
aI98
aI68
aI26
aa(lp169
S'2016-08-26'
p170
aI125
aI75
aI69
aI27
aa(lp171
S'2016-08-21'
p172
aI124
aI76
aI58
aI22
aa(lp173
S'2016-08-20'
p174
aI127
aI73
aI71
aI30
aa(lp175
S'2016-08-23'
p176
aI104
aI96
aI67
aI29
aa(lp177
S'2016-08-22'
p178
aI107
aI93
aI80
aI29
aa(lp179
S'2017-02-01'
p180
aI122
aI80
aI79
aI28
aa(lp181
S'2017-02-02'
p182
aI108
aI92
aI69
aI28
aa(lp183
S'2017-02-03'
p184
aI107
aI93
aI55
aI36
aa(lp185
S'2017-02-04'
p186
aI89
aI111
aI66
aI34
aa(lp187
S'2017-02-05'
p188
aI94
aI106
aI55
aI22
aa(lp189
S'2017-02-06'
p190
aI61
aI137
aI38
aI98
aa(lp191
S'2017-02-07'
p192
aI106
aI94
aI61
aI42
aa(lp193
S'2017-02-08'
p194
aI85
aI115
aI73
aI33
aa(lp195
S'2017-02-09'
p196
aI129
aI71
aI67
aI23
aa(lp197
S'2016-04-30'
p198
aI150
aI50
aI73
aI33
aa(lp199
S'2016-10-08'
p200
aI120
aI80
aI49
aI25
aa(lp201
S'2016-10-09'
p202
aI134
aI66
aI59
aI22
aa(lp203
S'2016-10-06'
p204
aI115
aI85
aI68
aI28
aa(lp205
S'2016-10-07'
p206
aI128
aI72
aI64
aI35
aa(lp207
S'2016-10-04'
p208
aI121
aI79
aI61
aI29
aa(lp209
S'2016-10-05'
p210
aI114
aI86
aI65
aI40
aa(lp211
S'2016-10-02'
p212
aI147
aI53
aI63
aI30
aa(lp213
S'2016-10-03'
p214
aI135
aI64
aI70
aI22
aa(lp215
S'2016-10-01'
p216
aI127
aI73
aI55
aI42
aa(lp217
S'2016-09-13'
p218
aI116
aI84
aI79
aI25
aa(lp219
S'2016-09-12'
p220
aI126
aI74
aI59
aI30
aa(lp221
S'2016-09-11'
p222
aI140
aI60
aI89
aI20
aa(lp223
S'2016-09-10'
p224
aI113
aI87
aI61
aI27
aa(lp225
S'2016-09-17'
p226
aI119
aI81
aI91
aI26
aa(lp227
S'2016-09-16'
p228
aI115
aI85
aI65
aI30
aa(lp229
S'2016-09-15'
p230
aI115
aI85
aI60
aI18
aa(lp231
S'2016-09-14'
p232
aI115
aI85
aI65
aI20
aa(lp233
S'2016-12-13'
p234
aI106
aI94
aI67
aI21
aa(lp235
S'2016-12-12'
p236
aI118
aI82
aI61
aI28
aa(lp237
S'2016-12-11'
p238
aI119
aI81
aI65
aI28
aa(lp239
S'2016-12-10'
p240
aI125
aI75
aI69
aI26
aa(lp241
S'2016-12-17'
p242
aI76
aI124
aI59
aI44
aa(lp243
S'2016-12-16'
p244
aI119
aI81
aI57
aI25
aa(lp245
S'2016-12-15'
p246
aI118
aI82
aI64
aI34
aa(lp247
S'2016-12-14'
p248
aI117
aI82
aI65
aI23
aa(lp249
S'2017-01-29'
p250
aI119
aI81
aI65
aI43
aa(lp251
S'2017-01-28'
p252
aI99
aI101
aI50
aI59
aa(lp253
S'2017-01-27'
p254
aI139
aI61
aI72
aI15
aa(lp255
S'2017-01-26'
p256
aI107
aI93
aI83
aI30
aa(lp257
S'2017-01-25'
p258
aI124
aI76
aI64
aI33
aa(lp259
S'2017-01-24'
p260
aI116
aI84
aI76
aI21
aa(lp261
S'2017-01-23'
p262
aI132
aI68
aI75
aI21
aa(lp263
S'2017-01-22'
p264
aI126
aI74
aI76
aI14
aa(lp265
S'2017-01-21'
p266
aI143
aI57
aI62
aI14
aa(lp267
S'2017-01-20'
p268
aI117
aI83
aI75
aI13
aa(lp269
S'2016-07-02'
p270
aI157
aI43
aI51
aI13
aa(lp271
S'2016-07-03'
p272
aI117
aI83
aI68
aI30
aa(lp273
S'2016-07-01'
p274
aI112
aI88
aI69
aI22
aa(lp275
S'2016-07-06'
p276
aI124
aI76
aI64
aI17
aa(lp277
S'2016-07-07'
p278
aI115
aI85
aI61
aI24
aa(lp279
S'2016-07-04'
p280
aI137
aI63
aI63
aI18
aa(lp281
S'2016-07-05'
p282
aI114
aI86
aI82
aI14
aa(lp283
S'2016-05-01'
p284
aI130
aI70
aI67
aI31
aa(lp285
S'2016-07-08'
p286
aI126
aI75
aI66
aI18
aa(lp287
S'2016-07-09'
p288
aI124
aI76
aI75
aI21
aa(lp289
S'2016-05-04'
p290
aI118
aI82
aI66
aI22
aa(lp291
S'2016-05-05'
p292
aI125
aI75
aI69
aI29
aa(lp293
S'2016-05-06'
p294
aI131
aI69
aI57
aI26
aa(lp295
S'2016-05-07'
p296
aI132
aI68
aI78
aI34
aa(lp297
S'2016-06-18'
p298
aI128
aI72
aI70
aI27
aa(lp299
S'2016-06-19'
p300
aI158
aI42
aI90
aI22
aa(lp301
S'2016-06-16'
p302
aI119
aI81
aI62
aI31
aa(lp303
S'2016-06-17'
p304
aI119
aI81
aI73
aI25
aa(lp305
S'2016-06-14'
p306
aI131
aI69
aI53
aI40
aa(lp307
S'2016-06-15'
p308
aI108
aI92
aI67
aI36
aa(lp309
S'2016-06-12'
p310
aI61
aI139
aI129
aI9
aa(lp311
S'2016-06-13'
p312
aI129
aI71
aI70
aI28
aa(lp313
S'2016-06-10'
p314
aI122
aI78
aI62
aI29
aa(lp315
S'2016-06-11'
p316
aI123
aI78
aI74
aI23
aa(lp317
S'2016-05-08'
p318
aI135
aI65
aI67
aI20
aa(lp319
S'2016-05-09'
p320
aI126
aI74
aI57
aI25
aa(lp321
S'2016-05-02'
p322
aI119
aI81
aI58
aI29
aa(lp323
S'2016-05-03'
p324
aI114
aI86
aI52
aI42
aa(lp325
S'2017-03-23'
p326
aI117
aI83
aI64
aI34
aa(lp327
S'2016-12-18'
p328
aI104
aI96
aI72
aI30
aa(lp329
S'2016-09-28'
p330
aI103
aI97
aI66
aI24
aa(lp331
S'2016-09-29'
p332
aI125
aI75
aI68
aI26
aa(lp333
S'2016-09-22'
p334
aI117
aI83
aI80
aI23
aa(lp335
S'2016-09-23'
p336
aI108
aI92
aI78
aI21
aa(lp337
S'2016-09-20'
p338
aI134
aI66
aI70
aI26
aa(lp339
S'2016-09-21'
p340
aI109
aI91
aI80
aI25
aa(lp341
S'2016-09-26'
p342
aI115
aI85
aI58
aI32
aa(lp343
S'2016-09-27'
p344
aI108
aI92
aI60
aI29
aa(lp345
S'2016-09-24'
p346
aI129
aI71
aI72
aI21
aa(lp347
S'2016-09-25'
p348
aI113
aI87
aI57
aI36
aa(lp349
S'2016-12-22'
p350
aI100
aI100
aI72
aI40
aa(lp351
S'2016-12-23'
p352
aI112
aI88
aI52
aI25
aa(lp353
S'2016-12-20'
p354
aI133
aI67
aI70
aI22
aa(lp355
S'2016-12-21'
p356
aI106
aI94
aI68
aI29
aa(lp357
S'2016-12-26'
p358
aI111
aI89
aI75
aI25
aa(lp359
S'2016-12-27'
p360
aI134
aI66
aI67
aI17
aa(lp361
S'2016-12-24'
p362
aI118
aI82
aI60
aI27
aa(lp363
S'2016-12-25'
p364
aI116
aI84
aI76
aI22
aa(lp365
S'2016-12-28'
p366
aI122
aI78
aI72
aI27
aa(lp367
S'2016-12-29'
p368
aI97
aI103
aI60
aI27
aa(lp369
S'2017-01-16'
p370
aI122
aI78
aI66
aI27
aa(lp371
S'2017-01-17'
p372
aI123
aI77
aI56
aI24
aa(lp373
S'2017-01-14'
p374
aI121
aI79
aI77
aI38
aa(lp375
S'2017-01-15'
p376
aI111
aI89
aI75
aI25
aa(lp377
S'2017-01-12'
p378
aI105
aI95
aI56
aI17
aa(lp379
S'2017-01-13'
p380
aI113
aI87
aI57
aI32
aa(lp381
S'2017-01-10'
p382
aI105
aI95
aI72
aI31
aa(lp383
S'2017-01-11'
p384
aI118
aI82
aI85
aI24
aa(lp385
S'2017-01-18'
p386
aI110
aI90
aI65
aI18
aa(lp387
S'2017-01-19'
p388
aI128
aI72
aI44
aI28
aa(lp389
S'2017-03-21'
p390
aI122
aI79
aI63
aI27
aa(lp391
S'2017-03-20'
p392
aI120
aI83
aI94
aI23
aa(lp393
S'2016-07-19'
p394
aI119
aI81
aI69
aI27
aa(lp395
S'2017-03-22'
p396
aI101
aI99
aI53
aI42
aa(lp397
S'2017-03-25'
p398
aI89
aI111
aI62
aI32
aa(lp399
S'2017-03-24'
p400
aI127
aI72
aI69
aI35
aa(lp401
S'2017-03-27'
p402
aI107
aI93
aI75
aI32
aa(lp403
S'2017-03-26'
p404
aI121
aI79
aI88
aI21
aa(lp405
S'2017-03-29'
p406
aI121
aI79
aI61
aI39
aa(lp407
S'2017-03-28'
p408
aI134
aI66
aI71
aI24
aa(lp409
S'2016-11-09'
p410
aI140
aI60
aI56
aI22
aa(lp411
S'2016-11-08'
p412
aI129
aI71
aI58
aI19
aa(lp413
S'2016-11-01'
p414
aI113
aI86
aI57
aI16
aa(lp415
S'2016-11-03'
p416
aI123
aI77
aI54
aI33
aa(lp417
S'2016-11-02'
p418
aI118
aI82
aI77
aI18
aa(lp419
S'2016-11-05'
p420
aI124
aI76
aI77
aI22
aa(lp421
S'2016-11-04'
p422
aI104
aI97
aI65
aI29
aa(lp423
S'2016-11-07'
p424
aI108
aI91
aI76
aI19
aa(lp425
S'2016-11-06'
p426
aI120
aI80
aI64
aI19
aa(lp427
S'2016-08-10'
p428
aI142
aI58
aI64
aI28
aa(lp429
S'2016-08-11'
p430
aI112
aI88
aI56
aI32
aa(lp431
S'2016-08-12'
p432
aI124
aI76
aI77
aI22
aa(lp433
S'2016-08-13'
p434
aI126
aI74
aI72
aI17
aa(lp435
S'2016-08-14'
p436
aI121
aI79
aI79
aI20
aa(lp437
S'2016-08-15'
p438
aI112
aI88
aI71
aI23
aa(lp439
S'2016-08-16'
p440
aI118
aI82
aI85
aI19
aa(lp441
S'2016-08-17'
p442
aI120
aI80
aI72
aI24
aa(lp443
S'2016-08-18'
p444
aI127
aI73
aI58
aI27
aa(lp445
S'2016-08-19'
p446
aI117
aI83
aI74
aI18
aa(lp447
S'2017-02-17'
p448
aI114
aI86
aI83
aI17
aa(lp449
S'2017-02-16'
p450
aI153
aI47
aI64
aI28
aa(lp451
S'2017-02-15'
p452
aI121
aI79
aI65
aI20
aa(lp453
S'2017-02-14'
p454
aI125
aI75
aI66
aI27
aa(lp455
S'2017-02-13'
p456
aI116
aI84
aI69
aI22
aa(lp457
S'2017-02-12'
p458
aI123
aI77
aI68
aI21
aa(lp459
S'2017-02-11'
p460
aI108
aI92
aI58
aI40
aa(lp461
S'2017-02-10'
p462
aI96
aI104
aI72
aI46
aa(lp463
S'2016-04-21'
p464
aI126
aI74
aI79
aI28
aa(lp465
S'2016-04-23'
p466
aI114
aI86
aI55
aI38
aa(lp467
S'2016-04-22'
p468
aI122
aI79
aI61
aI24
aa(lp469
S'2016-04-25'
p470
aI113
aI87
aI55
aI29
aa(lp471
S'2016-04-24'
p472
aI145
aI55
aI81
aI21
aa(lp473
S'2017-02-19'
p474
aI99
aI101
aI74
aI24
aa(lp475
S'2017-02-18'
p476
aI130
aI70
aI67
aI31
aa(lp477
S'2016-10-19'
p478
aI129
aI71
aI64
aI20
aa(lp479
S'2016-10-18'
p480
aI92
aI108
aI69
aI39
aa(lp481
S'2016-10-15'
p482
aI16
aI184
aI181
aI7
aa(lp483
S'2016-10-14'
p484
aI122
aI78
aI85
aI15
aa(lp485
S'2016-10-17'
p486
aI84
aI116
aI86
aI28
aa(lp487
S'2016-10-16'
p488
aI112
aI88
aI59
aI19
aa(lp489
S'2016-10-11'
p490
aI123
aI77
aI56
aI30
aa(lp491
S'2016-10-10'
p492
aI120
aI80
aI61
aI35
aa(lp493
S'2016-10-13'
p494
aI120
aI80
aI62
aI27
aa(lp495
S'2016-10-12'
p496
aI120
aI80
aI62
aI40
aa(lp497
S'2017-04-15'
p498
aI110
aI90
aI58
aI21
aa(lp499
S'2017-04-14'
p500
aI132
aI68
aI66
aI20
aa(lp501
S'2017-04-17'
p502
aI113
aI87
aI58
aI33
aa(lp503
S'2017-04-16'
p504
aI141
aI59
aI61
aI34
aa(lp505
S'2016-12-01'
p506
aI113
aI87
aI75
aI21
aa(lp507
S'2017-04-13'
p508
aI123
aI77
aI65
aI20
aa(lp509
S'2017-04-12'
p510
aI127
aI73
aI72
aI21
aa(lp511
S'2016-07-11'
p512
aI120
aI80
aI72
aI19
aa(lp513
S'2016-07-10'
p514
aI102
aI98
aI75
aI26
aa(lp515
S'2016-07-13'
p516
aI113
aI87
aI78
aI25
aa(lp517
S'2016-07-12'
p518
aI97
aI103
aI64
aI27
aa(lp519
S'2016-07-15'
p520
aI136
aI63
aI67
aI28
aa(lp521
S'2016-07-14'
p522
aI135
aI65
aI56
aI30
aa(lp523
S'2016-05-19'
p524
aI131
aI69
aI60
aI26
aa(lp525
S'2016-05-18'
p526
aI110
aI90
aI65
aI41
aa(lp527
S'2016-05-17'
p528
aI126
aI74
aI86
aI25
aa(lp529
S'2016-05-16'
p530
aI124
aI76
aI77
aI26
aa(lp531
S'2016-05-15'
p532
aI117
aI83
aI82
aI18
aa(lp533
S'2016-05-14'
p534
aI124
aI76
aI58
aI22
aa(lp535
S'2016-05-13'
p536
aI114
aI86
aI67
aI38
aa(lp537
S'2016-05-12'
p538
aI32
aI63
aI51
aI17
aa(lp539
S'2016-05-11'
p540
aI127
aI73
aI54
aI35
aa(lp541
S'2016-12-09'
p542
aI121
aI79
aI96
aI20
aa(lp543
S'2016-06-09'
p544
aI131
aI69
aI68
aI22
aa(lp545
S'2016-06-08'
p546
aI117
aI83
aI73
aI15
aa(lp547
S'2016-06-05'
p548
aI135
aI65
aI57
aI24
aa(lp549
S'2016-06-04'
p550
aI108
aI92
aI72
aI32
aa(lp551
S'2016-06-07'
p552
aI115
aI85
aI72
aI35
aa(lp553
S'2016-06-06'
p554
aI117
aI83
aI65
aI24
aa(lp555
S'2016-06-01'
p556
aI94
aI74
aI46
aI27
aa(lp557
S'2016-06-03'
p558
aI120
aI80
aI63
aI21
aa(lp559
S'2016-06-02'
p560
aI135
aI65
aI68
aI29
aa(lp561
S'2017-02-28'
p562
aI110
aI90
aI70
aI38
aa(lp563
S'2017-02-26'
p564
aI120
aI80
aI81
aI21
aa(lp565
S'2017-02-27'
p566
aI93
aI107
aI73
aI27
aa(lp567
S'2017-02-24'
p568
aI117
aI82
aI56
aI24
aa(lp569
S'2017-02-25'
p570
aI128
aI72
aI85
aI24
aa(lp571
S'2017-02-22'
p572
aI91
aI110
aI84
aI18
aa(lp573
S'2017-02-23'
p574
aI113
aI87
aI56
aI18
aa(lp575
S'2017-02-20'
p576
aI100
aI100
aI67
aI30
aa(lp577
S'2017-02-21'
p578
aI116
aI84
aI62
aI22
aa(lp579
S'2016-04-29'
p580
aI127
aI73
aI74
aI24
aa(lp581
S'2016-04-28'
p582
aI82
aI117
aI107
aI29
aa(lp583
S'2016-09-30'
p584
aI107
aI93
aI97
aI18
aa(lp585
S'2016-12-31'
p586
aI108
aI92
aI72
aI28
aa(lp587
S'2016-12-30'
p588
aI119
aI81
aI71
aI26
aa(lp589
S'2017-04-04'
p590
aI84
aI116
aI67
aI28
aa(lp591
S'2017-04-05'
p592
aI95
aI102
aI57
aI23
aa(lp593
S'2017-04-02'
p594
aI127
aI73
aI62
aI25
aa(lp595
S'2017-04-03'
p596
aI119
aI81
aI67
aI30
aa(lp597
S'2017-04-01'
p598
aI113
aI87
aI64
aI33
aa(lp599
S'2017-04-08'
p600
aI84
aI116
aI66
aI23
aa(lp601
S'2017-04-09'
p602
aI114
aI85
aI68
aI29
aa(lp603
S'2017-01-05'
p604
aI116
aI84
aI87
aI24
aa(lp605
S'2017-01-04'
p606
aI109
aI91
aI78
aI19
aa(lp607
S'2017-01-07'
p608
aI119
aI81
aI59
aI26
aa(lp609
S'2017-01-06'
p610
aI127
aI73
aI58
aI31
aa(lp611
S'2017-01-01'
p612
aI127
aI73
aI56
aI29
aa(lp613
S'2016-04-27'
p614
aI130
aI70
aI63
aI20
aa(lp615
S'2017-01-03'
p616
aI116
aI84
aI73
aI24
aa(lp617
S'2017-01-02'
p618
aI103
aI97
aI63
aI36
aa(lp619
S'2016-04-26'
p620
aI124
aI76
aI71
aI25
aa(lp621
S'2017-01-09'
p622
aI117
aI83
aI74
aI17
aa(lp623
S'2017-01-08'
p624
aI125
aI75
aI58
aI34
aa(lp625
S'2016-05-26'
p626
aI123
aI77
aI75
aI23
aa(lp627
S'2016-05-27'
p628
aI138
aI62
aI56
aI38
aa(lp629
S'2016-05-24'
p630
aI128
aI71
aI82
aI16
aa(lp631
S'2016-05-25'
p632
aI131
aI69
aI72
aI21
aa(lp633
S'2016-05-22'
p634
aI122
aI78
aI68
aI28
aa(lp635
S'2016-05-23'
p636
aI129
aI71
aI66
aI22
aa(lp637
S'2016-05-20'
p638
aI132
aI68
aI67
aI37
aa(lp639
S'2016-05-21'
p640
aI118
aI83
aI71
aI33
aa(lp641
S'2016-07-31'
p642
aI129
aI71
aI88
aI28
aa(lp643
S'2016-05-28'
p644
aI124
aI76
aI65
aI32
aa(lp645
S'2016-05-29'
p646
aI122
aI77
aI68
aI28
aa(lp647
S'2017-03-14'
p648
aI125
aI74
aI97
aI18
aa(lp649
S'2017-03-15'
p650
aI110
aI90
aI85
aI33
aa(lp651
S'2017-03-16'
p652
aI94
aI106
aI74
aI27
aa(lp653
S'2016-11-11'
p654
aI103
aI97
aI69
aI46
aa(lp655
S'2017-03-10'
p656
aI113
aI87
aI40
aI30
aa(lp657
S'2017-03-11'
p658
aI90
aI110
aI50
aI65
aa(lp659
S'2017-03-12'
p660
aI134
aI65
aI73
aI37
aa(lp661
S'2017-03-13'
p662
aI124
aI77
aI82
aI22
aa(lp663
S'2017-03-18'
p664
aI117
aI83
aI81
aI22
aa(lp665
S'2017-03-19'
p666
aI106
aI94
aI57
aI33
aa(lp667
S'2016-11-30'
p668
aI109
aI91
aI64
aI26
aa(lp669
S'2016-08-07'
p670
aI130
aI69
aI56
aI17
aa(lp671
S'2016-08-06'
p672
aI151
aI49
aI63
aI27
aa(lp673
S'2016-08-05'
p674
aI119
aI82
aI67
aI25
aa(lp675
S'2016-08-04'
p676
aI128
aI72
aI64
aI36
aa(lp677
S'2016-08-03'
p678
aI113
aI87
aI68
aI42
aa(lp679
S'2016-08-02'
p680
aI117
aI83
aI53
aI42
aa(lp681
S'2016-08-01'
p682
aI117
aI83
aI58
aI18
aa(lp683
S'2016-11-24'
p684
aI117
aI83
aI75
aI18
aa(lp685
S'2016-08-09'
p686
aI132
aI68
aI62
aI31
aa(lp687
S'2016-08-08'
p688
aI148
aI52
aI61
aI19
aa(lp689
S'2016-04-16'
p690
aI1
aI0
aI0
aI0
aa(lp691
S'2016-10-20'
p692
aI124
aI76
aI67
aI21
aa(lp693
S'2016-10-21'
p694
aI101
aI99
aI56
aI19
aa(lp695
S'2016-10-22'
p696
aI133
aI67
aI83
aI20
aa(lp697
S'2016-10-23'
p698
aI109
aI91
aI58
aI26
aa(lp699
S'2016-10-24'
p700
aI112
aI88
aI65
aI25
aa(lp701
S'2016-10-25'
p702
aI116
aI84
aI83
aI17
aa(lp703
S'2016-10-26'
p704
aI116
aI84
aI66
aI24
aa(lp705
S'2016-10-27'
p706
aI118
aI82
aI64
aI28
aa(lp707
S'2016-10-28'
p708
aI99
aI101
aI58
aI25
aa(lp709
S'2016-10-29'
p710
aI115
aI85
aI77
aI21
aa(lp711
S'2016-07-24'
p712
aI142
aI58
aI61
aI34
aa(lp713
S'2016-07-25'
p714
aI122
aI77
aI69
aI18
aa(lp715
S'2016-07-26'
p716
aI122
aI78
aI70
aI25
aa(lp717
S'2016-07-27'
p718
aI122
aI78
aI70
aI30
aa(lp719
S'2016-07-20'
p720
aI115
aI85
aI74
aI24
aa(lp721
S'2016-07-21'
p722
aI120
aI80
aI79
aI23
aa(lp723
S'2016-07-22'
p724
aI128
aI72
aI72
aI16
aa(lp725
S'2016-07-23'
p726
aI118
aI83
aI69
aI25
aa(lp727
S'2016-07-28'
p728
aI120
aI80
aI59
aI28
aa(lp729
S'2016-07-29'
p730
aI126
aI74
aI68
aI20
aa(lp731
S'2016-06-30'
p732
aI114
aI86
aI66
aI14
aa.