(lp0
(lp1
S'2017-04-20'
p2
aF0.43884892086330934
aF2.21875
aa(lp3
S'2017-04-17'
p4
aF0.6666666666666666
aF3.0
aa(lp5
S'2017-04-16'
p6
aF0.42857142857142855
aF1.605263157894737
aa(lp7
S'2017-04-19'
p8
aF0.7241379310344828
aF1.7714285714285714
aa(lp9
S'2017-04-18'
p10
aF0.6
aF2.3870967741935485
aa.