(dp0
S'2017-04-20'
p1
(lp2
I61
aI139
aI71
aI32
asS'2017-04-17'
p3
(lp4
I80
aI120
aI87
aI29
asS'2017-04-16'
p5
(lp6
I60
aI140
aI61
aI38
asS'2017-04-19'
p7
(lp8
I84
aI116
aI62
aI35
asS'2017-04-18'
p9
(lp10
I75
aI125
aI74
aI31
as.