(lp0
(lp1
S'2017-04-20'
p2
aI61
aI139
aI71
aI32
aa(lp3
S'2017-04-17'
p4
aI80
aI120
aI87
aI29
aa(lp5
S'2017-04-16'
p6
aI60
aI140
aI61
aI38
aa(lp7
S'2017-04-19'
p8
aI84
aI116
aI62
aI35
aa(lp9
S'2017-04-18'
p10
aI75
aI125
aI74
aI31
aa.