(dp0
S'2017-04-20'
p1
(lp2
F0.43884892086330934
aF2.21875
asS'2017-04-17'
p3
(lp4
F0.6666666666666666
aF3.0
asS'2017-04-16'
p5
(lp6
F0.42857142857142855
aF1.605263157894737
asS'2017-04-19'
p7
(lp8
F0.7241379310344828
aF1.7714285714285714
asS'2017-04-18'
p9
(lp10
F0.6
aF2.3870967741935485
as.