(dp0
S'2016-05-16'
p1
(lp2
F0.941747572815534
aF3.4761904761904763
asS'2016-08-30'
p3
(lp4
F1.105263157894737
aF2.3043478260869565
asS'2016-08-31'
p5
(lp6
F1.105263157894737
aF3.85
asS'2016-09-08'
p7
(lp8
F0.941747572815534
aF1.8214285714285714
asS'2016-09-09'
p9
(lp10
F0.9607843137254902
aF2.2857142857142856
asS'2016-09-04'
p11
(lp12
F1.4691358024691359
aF2.6315789473684212
asS'2016-09-05'
p13
(lp14
F1.247191011235955
aF2.4347826086956523
asS'2016-09-06'
p15
(lp16
F1.2727272727272727
aF1.8
asS'2016-09-07'
p17
(lp18
F0.941747572815534
aF3.0454545454545454
asS'2016-09-01'
p19
(lp20
F0.9047619047619048
aF2.727272727272727
asS'2016-09-02'
p21
(lp22
F0.6260162601626016
aF2.4375
asS'2016-09-03'
p23
(lp24
F1.0
aF2.2916666666666665
asS'2017-04-15'
p25
(lp26
F0.7391304347826086
aF3.0833333333333335
asS'2016-12-05'
p27
(lp28
F0.9230769230769231
aF2.769230769230769
asS'2017-04-17'
p29
(lp30
F0.6666666666666666
aF2.4
asS'2016-12-07'
p31
(lp32
F2.278688524590164
aF3.727272727272727
asS'2017-04-11'
p33
(lp34
F1.02020202020202
aF4.090909090909091
asS'2017-04-10'
p35
(lp36
F0.8867924528301887
aF1.6842105263157894
asS'2016-12-02'
p37
(lp38
F0.9607843137254902
aF2.4166666666666665
asS'2017-04-12'
p39
(lp40
F1.0618556701030928
aF4.8
asS'2017-01-30'
p41
(lp42
F0.6341463414634146
aF3.5714285714285716
asS'2017-01-31'
p43
(lp44
F0.41843971631205673
aF3.1818181818181817
asS'2017-04-19'
p45
(lp46
F0.8518518518518519
aF2.7241379310344827
asS'2017-04-18'
p47
(lp48
F0.6949152542372882
aF2.5185185185185186
asS'2017-03-09'
p49
(lp50
F1.6666666666666667
aF4.052631578947368
asS'2017-03-08'
p51
(lp52
F1.2222222222222223
aF4.294117647058823
asS'2016-05-31'
p53
(lp54
F1.0408163265306123
aF2.4814814814814814
asS'2016-05-30'
p55
(lp56
F0.8348623853211009
aF2.64
asS'2017-03-03'
p57
(lp58
F1.0
aF5.0
asS'2017-03-02'
p59
(lp60
F1.1505376344086022
aF3.217391304347826
asS'2017-03-01'
p61
(lp62
F1.127659574468085
aF5.166666666666667
asS'2017-03-07'
p63
(lp64
F0.6260162601626016
aF2.8333333333333335
asS'2017-03-06'
p65
(lp66
F0.9801980198019802
aF2.8076923076923075
asS'2017-03-05'
p67
(lp68
F1.2727272727272727
aF3.5
asS'2017-03-04'
p69
(lp70
F1.0
aF4.857142857142857
asS'2016-07-17'
p71
(lp72
F0.8348623853211009
aF2.5925925925925926
asS'2016-07-16'
p73
(lp74
F0.7391304347826086
aF2.1379310344827585
asS'2016-11-23'
p75
(lp76
F1.02020202020202
aF2.1538461538461537
asS'2016-11-22'
p77
(lp78
F0.8348623853211009
aF3.0952380952380953
asS'2016-11-21'
p79
(lp80
F1.247191011235955
aF2.25
asS'2016-11-20'
p81
(lp82
F1.2222222222222223
aF2.8
asS'2016-11-27'
p83
(lp84
F1.02020202020202
aF2.7083333333333335
asS'2016-11-26'
p85
(lp86
F1.5974025974025974
aF1.8571428571428572
asS'2016-11-25'
p87
(lp88
F1.4096385542168675
aF2.230769230769231
asS'2016-11-24'
p89
(lp90
F1.3255813953488371
aF2.75
asS'2016-11-29'
p91
(lp92
F1.5
aF4.4
asS'2016-11-28'
p93
(lp94
F1.247191011235955
aF2.8076923076923075
asS'2017-03-17'
p95
(lp96
F1.1505376344086022
aF2.2666666666666666
asS'2016-07-19'
p97
(lp98
F1.0833333333333333
aF2.8181818181818183
asS'2016-10-31'
p99
(lp100
F0.9230769230769231
aF1.108695652173913
asS'2016-10-30'
p101
(lp102
F1.0
aF2.0
asS'2016-12-09'
p103
(lp104
F2.0303030303030303
aF4.555555555555555
asS'2016-06-27'
p105
(lp106
F1.380952380952381
aF3.2
asS'2016-06-26'
p107
(lp108
F1.0408163265306123
aF4.157894736842105
asS'2016-06-25'
p109
(lp110
F0.9607843137254902
aF2.739130434782609
asS'2016-06-24'
p111
(lp112
F0.9801980198019802
aF4.3125
asS'2016-06-23'
p113
(lp114
F1.105263157894737
aF5.117647058823529
asS'2016-06-22'
p115
(lp116
F1.0
aF2.888888888888889
asS'2016-06-21'
p117
(lp118
F0.8348623853211009
aF3.1363636363636362
asS'2016-06-20'
p119
(lp120
F1.3255813953488371
aF2.727272727272727
asS'2016-06-29'
p121
(lp122
F0.8181818181818182
aF1.125
asS'2016-06-28'
p123
(lp124
F1.105263157894737
aF3.12
asS'2017-03-30'
p125
(lp126
F0.8181818181818182
aF2.5833333333333335
asS'2017-03-31'
p127
(lp128
F0.9801980198019802
aF3.6153846153846154
asS'2016-12-19'
p129
(lp130
F1.5974025974025974
aF3.466666666666667
asS'2016-11-18'
p131
(lp132
F1.105263157894737
aF3.590909090909091
asS'2016-11-19'
p133
(lp134
F1.1978021978021978
aF2.230769230769231
asS'2016-11-12'
p135
(lp136
F1.2988505747126438
aF3.1
asS'2016-11-13'
p137
(lp138
F0.8867924528301887
aF1.896551724137931
asS'2016-11-10'
p139
(lp140
F1.1978021978021978
aF6.071428571428571
asS'2016-07-30'
p141
(lp142
F1.0
aF2.2962962962962963
asS'2016-11-16'
p143
(lp144
F1.1505376344086022
aF3.8095238095238093
asS'2016-11-17'
p145
(lp146
F0.8018018018018018
aF3.909090909090909
asS'2016-11-14'
p147
(lp148
F1.127659574468085
aF2.466666666666667
asS'2016-11-15'
p149
(lp150
F0.8867924528301887
aF2.2222222222222223
asS'2017-04-20'
p151
(lp152
F0.639344262295082
aF2.75
asS'2016-12-11'
p153
(lp154
F1.9850746268656716
aF3.727272727272727
asS'2016-09-18'
p155
(lp156
F1.0618556701030928
aF2.7222222222222223
asS'2016-08-29'
p157
(lp158
F1.6666666666666667
aF2.409090909090909
asS'2016-08-28'
p159
(lp160
F0.639344262295082
aF1.5
asS'2016-08-25'
p161
(lp162
F1.105263157894737
aF3.142857142857143
asS'2016-08-24'
p163
(lp164
F1.2727272727272727
aF1.55
asS'2016-08-27'
p165
(lp166
F1.2222222222222223
aF2.28
asS'2016-08-26'
p167
(lp168
F0.8691588785046729
aF2.2916666666666665
asS'2016-08-21'
p169
(lp170
F0.7699115044247787
aF2.8095238095238093
asS'2016-08-20'
p171
(lp172
F0.8867924528301887
aF1.7666666666666666
asS'2016-08-23'
p173
(lp174
F1.0618556701030928
aF1.9285714285714286
asS'2016-08-22'
p175
(lp176
F1.02020202020202
aF3.5
asS'2017-02-01'
p177
(lp178
F1.5316455696202531
aF2.1538461538461537
asS'2017-02-02'
p179
(lp180
F1.3255813953488371
aF4.25
asS'2017-02-03'
p181
(lp182
F0.8518518518518519
aF1.4722222222222223
asS'2017-02-04'
p183
(lp184
F1.247191011235955
aF2.25
asS'2017-02-05'
p185
(lp186
F0.9509803921568627
aF5.095238095238095
asS'2017-02-06'
p187
(lp188
F0.9047619047619048
aF2.8636363636363638
asS'2017-02-07'
p189
(lp190
F1.1170212765957446
aF3.1666666666666665
asS'2017-02-08'
p191
(lp192
F0.639344262295082
aF2.5217391304347827
asS'2017-02-09'
p193
(lp194
F0.9607843137254902
aF2.4
asS'2016-04-30'
p195
(lp196
F0.941747572815534
aF1.4
asS'2016-10-08'
p197
(lp198
F0.9230769230769231
aF3.823529411764706
asS'2016-10-09'
p199
(lp200
F1.2222222222222223
aF3.0555555555555554
asS'2016-10-06'
p201
(lp202
F0.8018018018018018
aF2.6774193548387095
asS'2016-10-07'
p203
(lp204
F0.8018018018018018
aF3.260869565217391
asS'2016-10-04'
p205
(lp206
F0.6666666666666666
aF3.6666666666666665
asS'2016-10-05'
p207
(lp208
F0.7094017094017094
aF3.2083333333333335
asS'2016-10-02'
p209
(lp210
F0.8018018018018018
aF2.2413793103448274
asS'2016-10-03'
p211
(lp212
F0.8018018018018018
aF3.611111111111111
asS'2016-10-01'
p213
(lp214
F1.2727272727272727
aF2.25
asS'2016-09-13'
p215
(lp216
F0.8348623853211009
aF2.0
asS'2016-09-12'
p217
(lp218
F0.7543859649122807
aF2.0344827586206895
asS'2016-09-11'
p219
(lp220
F1.0833333333333333
aF3.3125
asS'2016-09-10'
p221
(lp222
F1.7027027027027026
aF2.9411764705882355
asS'2016-09-17'
p223
(lp224
F1.1170212765957446
aF2.24
asS'2016-09-16'
p225
(lp226
F1.1978021978021978
aF2.9166666666666665
asS'2016-09-15'
p227
(lp228
F0.8181818181818182
aF2.740740740740741
asS'2016-09-14'
p229
(lp230
F0.7927927927927928
aF2.1176470588235294
asS'2016-12-13'
p231
(lp232
F0.9607843137254902
aF1.8214285714285714
asS'2016-12-12'
p233
(lp234
F1.5974025974025974
aF4.5
asS'2016-09-19'
p235
(lp236
F0.941747572815534
aF3.888888888888889
asS'2016-12-10'
p237
(lp238
F2.9215686274509802
aF11.5
asS'2016-12-17'
p239
(lp240
F1.0833333333333333
aF1.8928571428571428
asS'2016-12-16'
p241
(lp242
F0.98
aF2.3793103448275863
asS'2016-12-15'
p243
(lp244
F1.148936170212766
aF5.066666666666666
asS'2016-12-14'
p245
(lp246
F1.0198019801980198
aF3.375
asS'2017-01-29'
p247
(lp248
F1.0408163265306123
aF1.5555555555555556
asS'2017-01-28'
p249
(lp250
F0.8181818181818182
aF2.45
asS'2017-01-27'
p251
(lp252
F0.9047619047619048
aF2.230769230769231
asS'2017-01-26'
p253
(lp254
F1.0
aF4.625
asS'2017-01-25'
p255
(lp256
F1.1505376344086022
aF1.4166666666666667
asS'2017-01-24'
p257
(lp258
F1.1978021978021978
aF3.2
asS'2017-01-23'
p259
(lp260
F1.4096385542168675
aF3.1052631578947367
asS'2017-01-22'
p261
(lp262
F1.105263157894737
aF2.9047619047619047
asS'2017-01-21'
p263
(lp264
F1.4390243902439024
aF1.5416666666666667
asS'2017-01-20'
p265
(lp266
F4.285714285714286
aF11.0
asS'2016-07-02'
p267
(lp268
F0.941747572815534
aF3.8333333333333335
asS'2016-07-03'
p269
(lp270
F0.8348623853211009
aF2.1818181818181817
asS'2016-07-01'
p271
(lp272
F0.9801980198019802
aF2.16
asS'2016-07-06'
p273
(lp274
F0.7094017094017094
aF2.0344827586206895
asS'2016-07-07'
p275
(lp276
F0.6341463414634146
aF0.9482758620689655
asS'2016-07-04'
p277
(lp278
F0.9900990099009901
aF2.6666666666666665
asS'2016-07-05'
p279
(lp280
F0.9509803921568627
aF2.619047619047619
asS'2016-05-01'
p281
(lp282
F0.680672268907563
aF2.3793103448275863
asS'2016-07-08'
p283
(lp284
F1.1170212765957446
aF1.8387096774193548
asS'2016-07-09'
p285
(lp286
F0.9607843137254902
aF2.5833333333333335
asS'2016-05-04'
p287
(lp288
F1.247191011235955
aF3.789473684210526
asS'2016-05-05'
p289
(lp290
F1.564102564102564
aF2.380952380952381
asS'2016-05-06'
p291
(lp292
F1.105263157894737
aF4.9375
asS'2016-05-07'
p293
(lp294
F1.2727272727272727
aF2.357142857142857
asS'2016-06-18'
p295
(lp296
F0.7241379310344828
aF2.15625
asS'2016-06-19'
p297
(lp298
F0.7241379310344828
aF1.3111111111111111
asS'2016-06-16'
p299
(lp300
F1.3529411764705883
aF1.8333333333333333
asS'2016-06-17'
p301
(lp302
F0.9230769230769231
aF3.0
asS'2016-06-14'
p303
(lp304
F1.0408163265306123
aF3.5238095238095237
asS'2016-06-15'
p305
(lp306
F0.8181818181818182
aF2.235294117647059
asS'2016-06-12'
p307
(lp308
F0.7391304347826086
aF2.0
asS'2016-06-13'
p309
(lp310
F0.9047619047619048
aF3.5
asS'2016-06-10'
p311
(lp312
F0.5748031496062992
aF1.911764705882353
asS'2016-06-11'
p313
(lp314
F0.9134615384615384
aF1.78125
asS'2016-05-08'
p315
(lp316
F1.4096385542168675
aF2.0
asS'2016-05-09'
p317
(lp318
F0.43884892086330934
aF0.7142857142857143
asS'2016-05-02'
p319
(lp320
F0.48148148148148145
aF0.9361702127659575
asS'2016-05-03'
p321
(lp322
F1.0
aF2.9166666666666665
asS'2016-12-18'
p323
(lp324
F1.4691358024691359
aF2.8823529411764706
asS'2016-09-28'
p325
(lp326
F1.127659574468085
aF3.7333333333333334
asS'2016-09-29'
p327
(lp328
F0.7699115044247787
aF4.705882352941177
asS'2016-09-22'
p329
(lp330
F0.9607843137254902
aF1.7837837837837838
asS'2016-09-23'
p331
(lp332
F1.1978021978021978
aF2.625
asS'2016-09-20'
p333
(lp334
F1.0833333333333333
aF4.3125
asS'2016-09-21'
p335
(lp336
F0.7699115044247787
aF2.814814814814815
asS'2016-09-26'
p337
(lp338
F2.508771929824561
aF9.909090909090908
asS'2016-09-27'
p339
(lp340
F1.7777777777777777
aF13.875
asS'2016-09-24'
p341
(lp342
F1.0408163265306123
aF3.0
asS'2016-09-25'
p343
(lp344
F1.3529411764705883
aF2.3333333333333335
asS'2016-12-22'
p345
(lp346
F1.3529411764705883
aF2.473684210526316
asS'2016-12-23'
p347
(lp348
F1.0408163265306123
aF1.6296296296296295
asS'2016-12-20'
p349
(lp350
F1.1505376344086022
aF2.2083333333333335
asS'2016-12-21'
p351
(lp352
F1.3255813953488371
aF1.8709677419354838
asS'2016-12-26'
p353
(lp354
F1.173913043478261
aF2.347826086956522
asS'2016-12-27'
p355
(lp356
F1.3529411764705883
aF4.4
asS'2016-12-24'
p357
(lp358
F1.4567901234567902
aF4.461538461538462
asS'2016-12-25'
p359
(lp360
F1.4691358024691359
aF2.2083333333333335
asS'2016-12-28'
p361
(lp362
F0.8425925925925926
aF2.423076923076923
asS'2016-12-29'
p363
(lp364
F0.99
aF1.8888888888888888
asS'2017-01-16'
p365
(lp366
F0.9047619047619048
aF2.3333333333333335
asS'2017-01-17'
p367
(lp368
F1.5
aF4.764705882352941
asS'2017-01-14'
p369
(lp370
F1.2988505747126438
aF1.875
asS'2017-01-15'
p371
(lp372
F2.0303030303030303
aF1.7777777777777777
asS'2017-01-12'
p373
(lp374
F0.9801980198019802
aF3.1578947368421053
asS'2017-01-13'
p375
(lp376
F1.0408163265306123
aF3.4444444444444446
asS'2017-01-10'
p377
(lp378
F0.7094017094017094
aF2.8461538461538463
asS'2017-01-11'
p379
(lp380
F1.0408163265306123
aF3.08
asS'2017-01-18'
p381
(lp382
F1.127659574468085
aF2.5833333333333335
asS'2017-01-19'
p383
(lp384
F1.2988505747126438
aF3.6470588235294117
asS'2017-03-21'
p385
(lp386
F1.5316455696202531
aF3.526315789473684
asS'2017-03-20'
p387
(lp388
F0.6949152542372882
aF1.967741935483871
asS'2017-03-23'
p389
(lp390
F1.0833333333333333
aF2.3333333333333335
asS'2017-03-22'
p391
(lp392
F0.7699115044247787
aF2.5185185185185186
asS'2017-03-25'
p393
(lp394
F0.9230769230769231
aF2.2058823529411766
asS'2017-03-24'
p395
(lp396
F1.173913043478261
aF3.782608695652174
asS'2017-03-27'
p397
(lp398
F0.941747572815534
aF2.52
asS'2017-03-26'
p399
(lp400
F0.7391304347826086
aF2.5185185185185186
asS'2017-03-29'
p401
(lp402
F1.0618556701030928
aF3.0
asS'2017-03-28'
p403
(lp404
F0.9801980198019802
aF3.6842105263157894
asS'2016-11-09'
p405
(lp406
F1.1505376344086022
aF5.357142857142857
asS'2016-11-08'
p407
(lp408
F1.173913043478261
aF5.857142857142857
asS'2016-11-01'
p409
(lp410
F1.0618556701030928
aF3.764705882352941
asS'2016-11-03'
p411
(lp412
F1.105263157894737
aF2.8095238095238093
asS'2016-11-02'
p413
(lp414
F0.9230769230769231
aF3.0
asS'2016-11-05'
p415
(lp416
F1.0833333333333333
aF2.7916666666666665
asS'2016-11-04'
p417
(lp418
F1.0510204081632653
aF3.45
asS'2016-11-07'
p419
(lp420
F1.1978021978021978
aF2.5384615384615383
asS'2016-11-06'
p421
(lp422
F1.0
aF3.210526315789474
asS'2016-07-18'
p423
(lp424
F1.0833333333333333
aF1.75
asS'2016-08-10'
p425
(lp426
F1.105263157894737
aF2.227272727272727
asS'2016-08-11'
p427
(lp428
F1.1978021978021978
aF2.8636363636363638
asS'2016-08-12'
p429
(lp430
F1.0
aF1.8666666666666667
asS'2016-08-13'
p431
(lp432
F0.8867924528301887
aF1.6111111111111112
asS'2016-08-14'
p433
(lp434
F1.4096385542168675
aF1.6153846153846154
asS'2016-08-15'
p435
(lp436
F0.7543859649122807
aF3.0434782608695654
asS'2016-08-16'
p437
(lp438
F0.8867924528301887
aF3.3181818181818183
asS'2016-08-17'
p439
(lp440
F0.8181818181818182
aF2.761904761904762
asS'2016-08-18'
p441
(lp442
F1.1041666666666667
aF5.923076923076923
asS'2016-08-19'
p443
(lp444
F0.6260162601626016
aF4.666666666666667
asS'2016-04-29'
p445
(lp446
F1.2988505747126438
aF1.4761904761904763
asS'2017-02-16'
p447
(lp448
F0.941747572815534
aF4.647058823529412
asS'2017-02-15'
p449
(lp450
F1.0618556701030928
aF4.0
asS'2017-02-14'
p451
(lp452
F1.0721649484536082
aF2.6206896551724137
asS'2017-02-13'
p453
(lp454
F0.8518518518518519
aF5.4375
asS'2017-02-12'
p455
(lp456
F0.6949152542372882
aF1.7857142857142858
asS'2017-02-11'
p457
(lp458
F1.173913043478261
aF2.25
asS'2017-02-10'
p459
(lp460
F1.1978021978021978
aF3.263157894736842
asS'2016-04-21'
p461
(lp462
F1.01
aF8.363636363636363
asS'2016-04-23'
p463
(lp464
F0.680672268907563
aF0.7627118644067796
asS'2016-04-22'
p465
(lp466
F1.1630434782608696
aF2.1
asS'2016-04-25'
p467
(lp468
F1.1978021978021978
aF2.0
asS'2016-04-24'
p469
(lp470
F0.9230769230769231
aF1.8571428571428572
asS'2016-04-27'
p471
(lp472
F0.27388535031847133
aF0.2761904761904762
asS'2017-02-18'
p473
(lp474
F0.8425925925925926
aF2.5555555555555554
asS'2016-10-19'
p475
(lp476
F0.9230769230769231
aF2.5555555555555554
asS'2016-10-18'
p477
(lp478
F0.7241379310344828
aF2.689655172413793
asS'2016-10-15'
p479
(lp480
F0.7857142857142857
aF2.409090909090909
asS'2016-10-14'
p481
(lp482
F1.0618556701030928
aF4.3125
asS'2016-10-17'
p483
(lp484
F1.0833333333333333
aF2.5384615384615383
asS'2016-10-16'
p485
(lp486
F1.0618556701030928
aF1.8888888888888888
asS'2016-10-11'
p487
(lp488
F0.9801980198019802
aF1.9375
asS'2016-10-10'
p489
(lp490
F0.9047619047619048
aF3.1818181818181817
asS'2016-10-13'
p491
(lp492
F1.5
aF5.0
asS'2016-10-12'
p493
(lp494
F0.9047619047619048
aF2.9545454545454546
asS'2016-12-04'
p495
(lp496
F1.247191011235955
aF1.76
asS'2017-04-14'
p497
(lp498
F0.7241379310344828
aF2.206896551724138
asS'2016-12-06'
p499
(lp500
F2.278688524590164
aF6.2
asS'2017-04-16'
p501
(lp502
F0.7094017094017094
aF2.4347826086956523
asS'2016-12-01'
p503
(lp504
F1.0833333333333333
aF2.869565217391304
asS'2017-04-13'
p505
(lp506
F0.5625
aF3.3043478260869565
asS'2016-12-03'
p507
(lp508
F1.564102564102564
aF2.0833333333333335
asS'2016-07-11'
p509
(lp510
F0.680672268907563
aF2.740740740740741
asS'2016-07-10'
p511
(lp512
F0.7391304347826086
aF2.0
asS'2016-07-13'
p513
(lp514
F1.247191011235955
aF3.6315789473684212
asS'2016-07-12'
p515
(lp516
F1.105263157894737
aF4.5625
asS'2016-07-15'
p517
(lp518
F1.02020202020202
aF2.857142857142857
asS'2016-07-14'
p519
(lp520
F0.8518518518518519
aF2.076923076923077
asS'2016-05-19'
p521
(lp522
F0.7094017094017094
aF2.7037037037037037
asS'2016-05-18'
p523
(lp524
F0.7857142857142857
aF3.6818181818181817
asS'2016-05-17'
p525
(lp526
F0.941747572815534
aF4.238095238095238
asS'2016-12-08'
p527
(lp528
F1.9166666666666667
aF3.0
asS'2016-05-15'
p529
(lp530
F0.7857142857142857
aF2.9565217391304346
asS'2016-05-14'
p531
(lp532
F0.7241379310344828
aF2.5185185185185186
asS'2016-05-13'
p533
(lp534
F1.2222222222222223
aF4.6
asS'2016-05-12'
p535
(lp536
F1.0
aF3.391304347826087
asS'2016-05-11'
p537
(lp538
F0.9230769230769231
aF2.3448275862068964
asS'2016-05-10'
p539
(lp540
F0.9607843137254902
aF2.0416666666666665
asS'2016-06-09'
p541
(lp542
F0.7094017094017094
aF1.8333333333333333
asS'2016-06-08'
p543
(lp544
F0.7478260869565218
aF3.4285714285714284
asS'2016-06-05'
p545
(lp546
F0.8518518518518519
aF3.3636363636363638
asS'2016-06-04'
p547
(lp548
F0.8348623853211009
aF2.185185185185185
asS'2016-06-07'
p549
(lp550
F0.9230769230769231
aF2.5357142857142856
asS'2016-06-06'
p551
(lp552
F1.105263157894737
aF2.2758620689655173
asS'2016-06-01'
p553
(lp554
F0.941747572815534
aF3.5217391304347827
asS'2016-06-03'
p555
(lp556
F0.7391304347826086
aF2.7777777777777777
asS'2016-06-02'
p557
(lp558
F1.173913043478261
aF3.5652173913043477
asS'2017-02-28'
p559
(lp560
F1.127659574468085
aF4.157894736842105
asS'2017-02-26'
p561
(lp562
F0.7857142857142857
aF3.0
asS'2017-02-27'
p563
(lp564
F0.9607843137254902
aF5.2
asS'2017-02-24'
p565
(lp566
F0.8518518518518519
aF2.6818181818181817
asS'2017-02-25'
p567
(lp568
F0.9230769230769231
aF2.925925925925926
asS'2017-02-22'
p569
(lp570
F0.8181818181818182
aF2.52
asS'2017-02-23'
p571
(lp572
F0.6
aF2.9565217391304346
asS'2017-02-20'
p573
(lp574
F0.9607843137254902
aF2.6818181818181817
asS'2017-02-21'
p575
(lp576
F1.5316455696202531
aF3.238095238095238
asS'2017-02-17'
p577
(lp578
F1.1505376344086022
aF2.8636363636363638
asS'2016-04-28'
p579
(lp580
F0.7543859649122807
aF1.6341463414634145
asS'2016-07-25'
p581
(lp582
F1.0408163265306123
aF3.5294117647058822
asS'2016-09-30'
p583
(lp584
F1.02020202020202
aF3.3157894736842106
asS'2016-12-31'
p585
(lp586
F1.380952380952381
aF1.625
asS'2016-12-30'
p587
(lp588
F0.8256880733944955
aF2.413793103448276
asS'2017-04-04'
p589
(lp590
F0.8181818181818182
aF2.4285714285714284
asS'2017-04-05'
p591
(lp592
F0.7094017094017094
aF2.466666666666667
asS'2017-04-02'
p593
(lp594
F0.5873015873015873
aF1.564102564102564
asS'2017-04-03'
p595
(lp596
F0.8181818181818182
aF3.227272727272727
asS'2017-04-01'
p597
(lp598
F1.0833333333333333
aF3.3181818181818183
asS'2016-07-23'
p599
(lp600
F0.680672268907563
aF1.8181818181818181
asS'2017-04-08'
p601
(lp602
F0.7008547008547008
aF3.2222222222222223
asS'2017-04-09'
p603
(lp604
F0.42857142857142855
aF1.3265306122448979
asS'2017-01-05'
p605
(lp606
F1.0618556701030928
aF2.7916666666666665
asS'2017-01-04'
p607
(lp608
F1.127659574468085
aF4.75
asS'2017-01-07'
p609
(lp610
F0.9047619047619048
aF3.6153846153846154
asS'2017-01-06'
p611
(lp612
F1.02020202020202
aF3.8823529411764706
asS'2017-01-01'
p613
(lp614
F1.247191011235955
aF1.2857142857142858
asS'2017-02-19'
p615
(lp616
F0.8018018018018018
aF2.8333333333333335
asS'2017-01-03'
p617
(lp618
F1.5
aF2.263157894736842
asS'2017-01-02'
p619
(lp620
F1.0408163265306123
aF2.4347826086956523
asS'2016-04-26'
p621
(lp622
F0.9047619047619048
aF2.0
asS'2017-01-09'
p623
(lp624
F0.9801980198019802
aF2.75
asS'2017-01-08'
p625
(lp626
F1.0408163265306123
aF2.9583333333333335
asS'2016-05-26'
p627
(lp628
F1.1505376344086022
aF5.6
asS'2016-05-27'
p629
(lp630
F0.680672268907563
aF4.133333333333334
asS'2016-05-24'
p631
(lp632
F0.8518518518518519
aF2.88
asS'2016-05-25'
p633
(lp634
F1.3255813953488371
aF3.473684210526316
asS'2016-05-22'
p635
(lp636
F0.7857142857142857
aF3.1
asS'2016-05-23'
p637
(lp638
F1.1505376344086022
aF6.166666666666667
asS'2016-05-20'
p639
(lp640
F0.941747572815534
aF3.8666666666666667
asS'2016-05-21'
p641
(lp642
F0.9607843137254902
aF2.740740740740741
asS'2016-07-31'
p643
(lp644
F0.5748031496062992
aF1.78125
asS'2016-05-28'
p645
(lp646
F0.9801980198019802
aF3.05
asS'2016-05-29'
p647
(lp648
F0.7857142857142857
aF1.3243243243243243
asS'2017-03-14'
p649
(lp650
F0.7543859649122807
aF2.740740740740741
asS'2017-03-15'
p651
(lp652
F0.9801980198019802
aF3.5
asS'2017-03-16'
p653
(lp654
F1.4096385542168675
aF3.3333333333333335
asS'2016-11-11'
p655
(lp656
F1.105263157894737
aF5.230769230769231
asS'2017-03-10'
p657
(lp658
F1.4390243902439024
aF3.55
asS'2017-03-11'
p659
(lp660
F0.8691588785046729
aF2.4482758620689653
asS'2017-03-12'
p661
(lp662
F0.8867924528301887
aF3.347826086956522
asS'2017-03-13'
p663
(lp664
F1.105263157894737
aF4.4375
asS'2017-03-18'
p665
(lp666
F1.105263157894737
aF1.7575757575757576
asS'2017-03-19'
p667
(lp668
F1.0618556701030928
aF2.1481481481481484
asS'2016-11-30'
p669
(lp670
F1.0833333333333333
aF3.3333333333333335
asS'2016-08-07'
p671
(lp672
F0.8348623853211009
aF1.1142857142857143
asS'2016-08-06'
p673
(lp674
F1.173913043478261
aF2.1379310344827585
asS'2016-08-05'
p675
(lp676
F1.105263157894737
aF2.4074074074074074
asS'2016-08-04'
p677
(lp678
F0.9607843137254902
aF2.3448275862068964
asS'2016-08-03'
p679
(lp680
F0.9607843137254902
aF2.4615384615384617
asS'2016-08-02'
p681
(lp682
F0.639344262295082
aF4.176470588235294
asS'2016-08-01'
p683
(lp684
F1.0408163265306123
aF3.8095238095238093
asS'2016-08-09'
p685
(lp686
F0.9047619047619048
aF1.7037037037037037
asS'2016-08-08'
p687
(lp688
F1.0408163265306123
aF1.7692307692307692
asS'2016-10-20'
p689
(lp690
F0.941747572815534
aF3.238095238095238
asS'2016-10-21'
p691
(lp692
F1.0618556701030928
aF4.470588235294118
asS'2016-10-22'
p693
(lp694
F0.8018018018018018
aF2.2333333333333334
asS'2016-10-23'
p695
(lp696
F1.0833333333333333
aF3.15
asS'2016-10-24'
p697
(lp698
F0.9801980198019802
aF4.352941176470588
asS'2016-10-25'
p699
(lp700
F0.9047619047619048
aF2.4347826086956523
asS'2016-10-26'
p701
(lp702
F0.9607843137254902
aF2.7037037037037037
asS'2016-10-27'
p703
(lp704
F1.5
aF4.294117647058823
asS'2016-10-28'
p705
(lp706
F0.9607843137254902
aF2.9047619047619047
asS'2016-10-29'
p707
(lp708
F1.1978021978021978
aF2.4761904761904763
asS'2016-07-24'
p709
(lp710
F1.105263157894737
aF2.75
asS'2017-04-06'
p711
(lp712
F0.7857142857142857
aF2.1875
asS'2016-07-26'
p713
(lp714
F1.02020202020202
aF6.833333333333333
asS'2016-07-27'
p715
(lp716
F0.4925373134328358
aF2.739130434782609
asS'2016-07-20'
p717
(lp718
F1.0833333333333333
aF3.125
asS'2016-07-21'
p719
(lp720
F0.7699115044247787
aF3.0869565217391304
asS'2016-07-22'
p721
(lp722
F0.6949152542372882
aF1.5121951219512195
asS'2017-04-07'
p723
(lp724
F0.5952380952380952
aF2.411764705882353
asS'2016-07-28'
p725
(lp726
F0.8348623853211009
aF2.0
asS'2016-07-29'
p727
(lp728
F0.9047619047619048
aF3.0555555555555554
asS'2016-06-30'
p729
(lp730
F1.0833333333333333
aF2.24
as.