(lp0
(lp1
S'2016-08-30'
p2
aF1.105263157894737
aF2.3043478260869565
aa(lp3
S'2016-08-31'
p4
aF1.105263157894737
aF3.85
aa(lp5
S'2017-04-19'
p6
aF0.8518518518518519
aF2.7241379310344827
aa(lp7
S'2016-09-08'
p8
aF0.941747572815534
aF1.8214285714285714
aa(lp9
S'2016-09-09'
p10
aF0.9607843137254902
aF2.2857142857142856
aa(lp11
S'2016-09-04'
p12
aF1.4691358024691359
aF2.6315789473684212
aa(lp13
S'2016-09-05'
p14
aF1.247191011235955
aF2.4347826086956523
aa(lp15
S'2016-09-06'
p16
aF1.2727272727272727
aF1.8
aa(lp17
S'2016-09-07'
p18
aF0.941747572815534
aF3.0454545454545454
aa(lp19
S'2016-09-01'
p20
aF0.9047619047619048
aF2.727272727272727
aa(lp21
S'2016-09-02'
p22
aF0.6260162601626016
aF2.4375
aa(lp23
S'2016-09-03'
p24
aF1.0
aF2.2916666666666665
aa(lp25
S'2016-12-04'
p26
aF1.247191011235955
aF1.76
aa(lp27
S'2016-12-05'
p28
aF0.9230769230769231
aF2.769230769230769
aa(lp29
S'2016-12-06'
p30
aF2.278688524590164
aF6.2
aa(lp31
S'2016-12-07'
p32
aF2.278688524590164
aF3.727272727272727
aa(lp33
S'2017-04-11'
p34
aF1.02020202020202
aF4.090909090909091
aa(lp35
S'2017-04-10'
p36
aF0.8867924528301887
aF1.6842105263157894
aa(lp37
S'2016-12-02'
p38
aF0.9607843137254902
aF2.4166666666666665
aa(lp39
S'2016-12-03'
p40
aF1.564102564102564
aF2.0833333333333335
aa(lp41
S'2017-01-30'
p42
aF0.6341463414634146
aF3.5714285714285716
aa(lp43
S'2017-01-31'
p44
aF0.41843971631205673
aF3.1818181818181817
aa(lp45
S'2016-12-08'
p46
aF1.9166666666666667
aF3.0
aa(lp47
S'2017-04-18'
p48
aF0.6949152542372882
aF2.5185185185185186
aa(lp49
S'2017-03-09'
p50
aF1.6666666666666667
aF4.052631578947368
aa(lp51
S'2017-03-08'
p52
aF1.2222222222222223
aF4.294117647058823
aa(lp53
S'2016-05-31'
p54
aF1.0408163265306123
aF2.4814814814814814
aa(lp55
S'2016-05-30'
p56
aF0.8348623853211009
aF2.64
aa(lp57
S'2017-03-03'
p58
aF1.0
aF5.0
aa(lp59
S'2017-03-02'
p60
aF1.1505376344086022
aF3.217391304347826
aa(lp61
S'2017-03-01'
p62
aF1.127659574468085
aF5.166666666666667
aa(lp63
S'2017-03-07'
p64
aF0.6260162601626016
aF2.8333333333333335
aa(lp65
S'2017-03-06'
p66
aF0.9801980198019802
aF2.8076923076923075
aa(lp67
S'2017-03-05'
p68
aF1.2727272727272727
aF3.5
aa(lp69
S'2017-03-04'
p70
aF1.0
aF4.857142857142857
aa(lp71
S'2016-07-17'
p72
aF0.8348623853211009
aF2.5925925925925926
aa(lp73
S'2016-07-16'
p74
aF0.7391304347826086
aF2.1379310344827585
aa(lp75
S'2016-11-23'
p76
aF1.02020202020202
aF2.1538461538461537
aa(lp77
S'2016-11-22'
p78
aF0.8348623853211009
aF3.0952380952380953
aa(lp79
S'2016-11-21'
p80
aF1.247191011235955
aF2.25
aa(lp81
S'2016-11-20'
p82
aF1.2222222222222223
aF2.8
aa(lp83
S'2016-11-27'
p84
aF1.02020202020202
aF2.7083333333333335
aa(lp85
S'2016-11-26'
p86
aF1.5974025974025974
aF1.8571428571428572
aa(lp87
S'2016-11-25'
p88
aF1.4096385542168675
aF2.230769230769231
aa(lp89
S'2016-07-18'
p90
aF1.0833333333333333
aF1.75
aa(lp91
S'2016-11-29'
p92
aF1.5
aF4.4
aa(lp93
S'2016-11-28'
p94
aF1.247191011235955
aF2.8076923076923075
aa(lp95
S'2017-03-17'
p96
aF1.1505376344086022
aF2.2666666666666666
aa(lp97
S'2016-05-10'
p98
aF0.9607843137254902
aF2.0416666666666665
aa(lp99
S'2016-10-31'
p100
aF0.9230769230769231
aF1.108695652173913
aa(lp101
S'2016-10-30'
p102
aF1.0
aF2.0
aa(lp103
S'2017-04-06'
p104
aF0.7857142857142857
aF2.1875
aa(lp105
S'2016-06-27'
p106
aF1.380952380952381
aF3.2
aa(lp107
S'2016-06-26'
p108
aF1.0408163265306123
aF4.157894736842105
aa(lp109
S'2016-06-25'
p110
aF0.9607843137254902
aF2.739130434782609
aa(lp111
S'2016-06-24'
p112
aF0.9801980198019802
aF4.3125
aa(lp113
S'2016-06-23'
p114
aF1.105263157894737
aF5.117647058823529
aa(lp115
S'2016-06-22'
p116
aF1.0
aF2.888888888888889
aa(lp117
S'2016-06-21'
p118
aF0.8348623853211009
aF3.1363636363636362
aa(lp119
S'2016-06-20'
p120
aF1.3255813953488371
aF2.727272727272727
aa(lp121
S'2016-06-29'
p122
aF0.8181818181818182
aF1.125
aa(lp123
S'2016-06-28'
p124
aF1.105263157894737
aF3.12
aa(lp125
S'2016-12-30'
p126
aF0.8256880733944955
aF2.413793103448276
aa(lp127
S'2017-03-30'
p128
aF0.8181818181818182
aF2.5833333333333335
aa(lp129
S'2017-03-31'
p130
aF0.9801980198019802
aF3.6153846153846154
aa(lp131
S'2016-12-19'
p132
aF1.5974025974025974
aF3.466666666666667
aa(lp133
S'2016-11-18'
p134
aF1.105263157894737
aF3.590909090909091
aa(lp135
S'2016-11-19'
p136
aF1.1978021978021978
aF2.230769230769231
aa(lp137
S'2016-11-12'
p138
aF1.2988505747126438
aF3.1
aa(lp139
S'2016-11-13'
p140
aF0.8867924528301887
aF1.896551724137931
aa(lp141
S'2016-11-10'
p142
aF1.1978021978021978
aF6.071428571428571
aa(lp143
S'2016-07-30'
p144
aF1.0
aF2.2962962962962963
aa(lp145
S'2016-11-16'
p146
aF1.1505376344086022
aF3.8095238095238093
aa(lp147
S'2016-11-17'
p148
aF0.8018018018018018
aF3.909090909090909
aa(lp149
S'2016-11-14'
p150
aF1.127659574468085
aF2.466666666666667
aa(lp151
S'2016-11-15'
p152
aF0.8867924528301887
aF2.2222222222222223
aa(lp153
S'2017-04-20'
p154
aF0.639344262295082
aF2.75
aa(lp155
S'2016-09-19'
p156
aF0.941747572815534
aF3.888888888888889
aa(lp157
S'2016-09-18'
p158
aF1.0618556701030928
aF2.7222222222222223
aa(lp159
S'2016-08-29'
p160
aF1.6666666666666667
aF2.409090909090909
aa(lp161
S'2016-08-28'
p162
aF0.639344262295082
aF1.5
aa(lp163
S'2016-08-25'
p164
aF1.105263157894737
aF3.142857142857143
aa(lp165
S'2016-08-24'
p166
aF1.2727272727272727
aF1.55
aa(lp167
S'2016-08-27'
p168
aF1.2222222222222223
aF2.28
aa(lp169
S'2016-08-26'
p170
aF0.8691588785046729
aF2.2916666666666665
aa(lp171
S'2016-08-21'
p172
aF0.7699115044247787
aF2.8095238095238093
aa(lp173
S'2016-08-20'
p174
aF0.8867924528301887
aF1.7666666666666666
aa(lp175
S'2016-08-23'
p176
aF1.0618556701030928
aF1.9285714285714286
aa(lp177
S'2016-08-22'
p178
aF1.02020202020202
aF3.5
aa(lp179
S'2017-02-01'
p180
aF1.5316455696202531
aF2.1538461538461537
aa(lp181
S'2017-02-02'
p182
aF1.3255813953488371
aF4.25
aa(lp183
S'2017-02-03'
p184
aF0.8518518518518519
aF1.4722222222222223
aa(lp185
S'2017-02-04'
p186
aF1.247191011235955
aF2.25
aa(lp187
S'2017-02-05'
p188
aF0.9509803921568627
aF5.095238095238095
aa(lp189
S'2017-02-06'
p190
aF0.9047619047619048
aF2.8636363636363638
aa(lp191
S'2017-02-07'
p192
aF1.1170212765957446
aF3.1666666666666665
aa(lp193
S'2017-02-08'
p194
aF0.639344262295082
aF2.5217391304347827
aa(lp195
S'2017-02-09'
p196
aF0.9607843137254902
aF2.4
aa(lp197
S'2016-04-30'
p198
aF0.941747572815534
aF1.4
aa(lp199
S'2016-10-08'
p200
aF0.9230769230769231
aF3.823529411764706
aa(lp201
S'2016-10-09'
p202
aF1.2222222222222223
aF3.0555555555555554
aa(lp203
S'2016-10-06'
p204
aF0.8018018018018018
aF2.6774193548387095
aa(lp205
S'2016-10-07'
p206
aF0.8018018018018018
aF3.260869565217391
aa(lp207
S'2016-10-04'
p208
aF0.6666666666666666
aF3.6666666666666665
aa(lp209
S'2016-10-05'
p210
aF0.7094017094017094
aF3.2083333333333335
aa(lp211
S'2016-10-02'
p212
aF0.8018018018018018
aF2.2413793103448274
aa(lp213
S'2016-10-03'
p214
aF0.8018018018018018
aF3.611111111111111
aa(lp215
S'2016-10-01'
p216
aF1.2727272727272727
aF2.25
aa(lp217
S'2016-09-13'
p218
aF0.8348623853211009
aF2.0
aa(lp219
S'2016-09-12'
p220
aF0.7543859649122807
aF2.0344827586206895
aa(lp221
S'2016-09-11'
p222
aF1.0833333333333333
aF3.3125
aa(lp223
S'2016-09-10'
p224
aF1.7027027027027026
aF2.9411764705882355
aa(lp225
S'2016-09-17'
p226
aF1.1170212765957446
aF2.24
aa(lp227
S'2016-09-16'
p228
aF1.1978021978021978
aF2.9166666666666665
aa(lp229
S'2016-09-15'
p230
aF0.8181818181818182
aF2.740740740740741
aa(lp231
S'2016-09-14'
p232
aF0.7927927927927928
aF2.1176470588235294
aa(lp233
S'2016-12-13'
p234
aF0.9607843137254902
aF1.8214285714285714
aa(lp235
S'2016-12-12'
p236
aF1.5974025974025974
aF4.5
aa(lp237
S'2016-12-11'
p238
aF1.9850746268656716
aF3.727272727272727
aa(lp239
S'2016-12-10'
p240
aF2.9215686274509802
aF11.5
aa(lp241
S'2016-12-17'
p242
aF1.0833333333333333
aF1.8928571428571428
aa(lp243
S'2016-12-16'
p244
aF0.98
aF2.3793103448275863
aa(lp245
S'2016-12-15'
p246
aF1.148936170212766
aF5.066666666666666
aa(lp247
S'2016-12-14'
p248
aF1.0198019801980198
aF3.375
aa(lp249
S'2017-01-29'
p250
aF1.0408163265306123
aF1.5555555555555556
aa(lp251
S'2017-01-28'
p252
aF0.8181818181818182
aF2.45
aa(lp253
S'2017-01-27'
p254
aF0.9047619047619048
aF2.230769230769231
aa(lp255
S'2017-01-26'
p256
aF1.0
aF4.625
aa(lp257
S'2017-01-25'
p258
aF1.1505376344086022
aF1.4166666666666667
aa(lp259
S'2017-01-24'
p260
aF1.1978021978021978
aF3.2
aa(lp261
S'2017-01-23'
p262
aF1.4096385542168675
aF3.1052631578947367
aa(lp263
S'2017-01-22'
p264
aF1.105263157894737
aF2.9047619047619047
aa(lp265
S'2017-01-21'
p266
aF1.4390243902439024
aF1.5416666666666667
aa(lp267
S'2017-01-20'
p268
aF4.285714285714286
aF11.0
aa(lp269
S'2016-07-02'
p270
aF0.941747572815534
aF3.8333333333333335
aa(lp271
S'2016-07-03'
p272
aF0.8348623853211009
aF2.1818181818181817
aa(lp273
S'2016-07-01'
p274
aF0.9801980198019802
aF2.16
aa(lp275
S'2016-07-06'
p276
aF0.7094017094017094
aF2.0344827586206895
aa(lp277
S'2016-07-07'
p278
aF0.6341463414634146
aF0.9482758620689655
aa(lp279
S'2016-07-04'
p280
aF0.9900990099009901
aF2.6666666666666665
aa(lp281
S'2016-07-05'
p282
aF0.9509803921568627
aF2.619047619047619
aa(lp283
S'2016-05-01'
p284
aF0.680672268907563
aF2.3793103448275863
aa(lp285
S'2016-07-08'
p286
aF1.1170212765957446
aF1.8387096774193548
aa(lp287
S'2016-07-09'
p288
aF0.9607843137254902
aF2.5833333333333335
aa(lp289
S'2016-05-04'
p290
aF1.247191011235955
aF3.789473684210526
aa(lp291
S'2016-05-05'
p292
aF1.564102564102564
aF2.380952380952381
aa(lp293
S'2016-05-06'
p294
aF1.105263157894737
aF4.9375
aa(lp295
S'2016-05-07'
p296
aF1.2727272727272727
aF2.357142857142857
aa(lp297
S'2016-06-18'
p298
aF0.7241379310344828
aF2.15625
aa(lp299
S'2016-06-19'
p300
aF0.7241379310344828
aF1.3111111111111111
aa(lp301
S'2016-06-16'
p302
aF1.3529411764705883
aF1.8333333333333333
aa(lp303
S'2016-06-17'
p304
aF0.9230769230769231
aF3.0
aa(lp305
S'2016-06-14'
p306
aF1.0408163265306123
aF3.5238095238095237
aa(lp307
S'2016-06-15'
p308
aF0.8181818181818182
aF2.235294117647059
aa(lp309
S'2016-06-12'
p310
aF0.7391304347826086
aF2.0
aa(lp311
S'2016-06-13'
p312
aF0.9047619047619048
aF3.5
aa(lp313
S'2016-06-10'
p314
aF0.5748031496062992
aF1.911764705882353
aa(lp315
S'2016-06-11'
p316
aF0.9134615384615384
aF1.78125
aa(lp317
S'2016-05-08'
p318
aF1.4096385542168675
aF2.0
aa(lp319
S'2016-05-09'
p320
aF0.43884892086330934
aF0.7142857142857143
aa(lp321
S'2016-05-02'
p322
aF0.48148148148148145
aF0.9361702127659575
aa(lp323
S'2016-05-03'
p324
aF1.0
aF2.9166666666666665
aa(lp325
S'2017-03-23'
p326
aF1.0833333333333333
aF2.3333333333333335
aa(lp327
S'2016-12-18'
p328
aF1.4691358024691359
aF2.8823529411764706
aa(lp329
S'2016-09-28'
p330
aF1.127659574468085
aF3.7333333333333334
aa(lp331
S'2016-09-29'
p332
aF0.7699115044247787
aF4.705882352941177
aa(lp333
S'2016-09-22'
p334
aF0.9607843137254902
aF1.7837837837837838
aa(lp335
S'2016-09-23'
p336
aF1.1978021978021978
aF2.625
aa(lp337
S'2016-09-20'
p338
aF1.0833333333333333
aF4.3125
aa(lp339
S'2016-09-21'
p340
aF0.7699115044247787
aF2.814814814814815
aa(lp341
S'2016-09-26'
p342
aF2.508771929824561
aF9.909090909090908
aa(lp343
S'2016-09-27'
p344
aF1.7777777777777777
aF13.875
aa(lp345
S'2016-09-24'
p346
aF1.0408163265306123
aF3.0
aa(lp347
S'2016-09-25'
p348
aF1.3529411764705883
aF2.3333333333333335
aa(lp349
S'2016-12-22'
p350
aF1.3529411764705883
aF2.473684210526316
aa(lp351
S'2016-12-23'
p352
aF1.0408163265306123
aF1.6296296296296295
aa(lp353
S'2016-12-20'
p354
aF1.1505376344086022
aF2.2083333333333335
aa(lp355
S'2016-12-21'
p356
aF1.3255813953488371
aF1.8709677419354838
aa(lp357
S'2016-12-26'
p358
aF1.173913043478261
aF2.347826086956522
aa(lp359
S'2016-12-27'
p360
aF1.3529411764705883
aF4.4
aa(lp361
S'2016-12-24'
p362
aF1.4567901234567902
aF4.461538461538462
aa(lp363
S'2016-12-25'
p364
aF1.4691358024691359
aF2.2083333333333335
aa(lp365
S'2016-12-28'
p366
aF0.8425925925925926
aF2.423076923076923
aa(lp367
S'2016-12-29'
p368
aF0.99
aF1.8888888888888888
aa(lp369
S'2017-01-16'
p370
aF0.9047619047619048
aF2.3333333333333335
aa(lp371
S'2017-01-17'
p372
aF1.5
aF4.764705882352941
aa(lp373
S'2017-01-14'
p374
aF1.2988505747126438
aF1.875
aa(lp375
S'2017-01-15'
p376
aF2.0303030303030303
aF1.7777777777777777
aa(lp377
S'2017-01-12'
p378
aF0.9801980198019802
aF3.1578947368421053
aa(lp379
S'2017-01-13'
p380
aF1.0408163265306123
aF3.4444444444444446
aa(lp381
S'2017-01-10'
p382
aF0.7094017094017094
aF2.8461538461538463
aa(lp383
S'2017-01-11'
p384
aF1.0408163265306123
aF3.08
aa(lp385
S'2017-01-18'
p386
aF1.127659574468085
aF2.5833333333333335
aa(lp387
S'2017-01-19'
p388
aF1.2988505747126438
aF3.6470588235294117
aa(lp389
S'2017-03-21'
p390
aF1.5316455696202531
aF3.526315789473684
aa(lp391
S'2017-03-20'
p392
aF0.6949152542372882
aF1.967741935483871
aa(lp393
S'2016-07-19'
p394
aF1.0833333333333333
aF2.8181818181818183
aa(lp395
S'2017-03-22'
p396
aF0.7699115044247787
aF2.5185185185185186
aa(lp397
S'2017-03-25'
p398
aF0.9230769230769231
aF2.2058823529411766
aa(lp399
S'2017-03-24'
p400
aF1.173913043478261
aF3.782608695652174
aa(lp401
S'2017-03-27'
p402
aF0.941747572815534
aF2.52
aa(lp403
S'2017-03-26'
p404
aF0.7391304347826086
aF2.5185185185185186
aa(lp405
S'2017-03-29'
p406
aF1.0618556701030928
aF3.0
aa(lp407
S'2017-03-28'
p408
aF0.9801980198019802
aF3.6842105263157894
aa(lp409
S'2016-11-09'
p410
aF1.1505376344086022
aF5.357142857142857
aa(lp411
S'2016-11-08'
p412
aF1.173913043478261
aF5.857142857142857
aa(lp413
S'2016-11-01'
p414
aF1.0618556701030928
aF3.764705882352941
aa(lp415
S'2016-11-03'
p416
aF1.105263157894737
aF2.8095238095238093
aa(lp417
S'2016-11-02'
p418
aF0.9230769230769231
aF3.0
aa(lp419
S'2016-11-05'
p420
aF1.0833333333333333
aF2.7916666666666665
aa(lp421
S'2016-11-04'
p422
aF1.0510204081632653
aF3.45
aa(lp423
S'2016-11-07'
p424
aF1.1978021978021978
aF2.5384615384615383
aa(lp425
S'2016-11-06'
p426
aF1.0
aF3.210526315789474
aa(lp427
S'2016-08-10'
p428
aF1.105263157894737
aF2.227272727272727
aa(lp429
S'2016-08-11'
p430
aF1.1978021978021978
aF2.8636363636363638
aa(lp431
S'2016-08-12'
p432
aF1.0
aF1.8666666666666667
aa(lp433
S'2016-08-13'
p434
aF0.8867924528301887
aF1.6111111111111112
aa(lp435
S'2016-08-14'
p436
aF1.4096385542168675
aF1.6153846153846154
aa(lp437
S'2016-08-15'
p438
aF0.7543859649122807
aF3.0434782608695654
aa(lp439
S'2016-08-16'
p440
aF0.8867924528301887
aF3.3181818181818183
aa(lp441
S'2016-08-17'
p442
aF0.8181818181818182
aF2.761904761904762
aa(lp443
S'2016-08-18'
p444
aF1.1041666666666667
aF5.923076923076923
aa(lp445
S'2016-08-19'
p446
aF0.6260162601626016
aF4.666666666666667
aa(lp447
S'2017-02-17'
p448
aF1.1505376344086022
aF2.8636363636363638
aa(lp449
S'2017-02-16'
p450
aF0.941747572815534
aF4.647058823529412
aa(lp451
S'2017-02-15'
p452
aF1.0618556701030928
aF4.0
aa(lp453
S'2017-02-14'
p454
aF1.0721649484536082
aF2.6206896551724137
aa(lp455
S'2017-02-13'
p456
aF0.8518518518518519
aF5.4375
aa(lp457
S'2017-02-12'
p458
aF0.6949152542372882
aF1.7857142857142858
aa(lp459
S'2017-02-11'
p460
aF1.173913043478261
aF2.25
aa(lp461
S'2017-02-10'
p462
aF1.1978021978021978
aF3.263157894736842
aa(lp463
S'2016-04-21'
p464
aF1.01
aF8.363636363636363
aa(lp465
S'2016-04-23'
p466
aF0.680672268907563
aF0.7627118644067796
aa(lp467
S'2016-04-22'
p468
aF1.1630434782608696
aF2.1
aa(lp469
S'2016-04-25'
p470
aF1.1978021978021978
aF2.0
aa(lp471
S'2016-04-24'
p472
aF0.9230769230769231
aF1.8571428571428572
aa(lp473
S'2017-02-19'
p474
aF0.8018018018018018
aF2.8333333333333335
aa(lp475
S'2017-02-18'
p476
aF0.8425925925925926
aF2.5555555555555554
aa(lp477
S'2016-10-19'
p478
aF0.9230769230769231
aF2.5555555555555554
aa(lp479
S'2016-10-18'
p480
aF0.7241379310344828
aF2.689655172413793
aa(lp481
S'2016-10-15'
p482
aF0.7857142857142857
aF2.409090909090909
aa(lp483
S'2016-10-14'
p484
aF1.0618556701030928
aF4.3125
aa(lp485
S'2016-10-17'
p486
aF1.0833333333333333
aF2.5384615384615383
aa(lp487
S'2016-10-16'
p488
aF1.0618556701030928
aF1.8888888888888888
aa(lp489
S'2016-10-11'
p490
aF0.9801980198019802
aF1.9375
aa(lp491
S'2016-10-10'
p492
aF0.9047619047619048
aF3.1818181818181817
aa(lp493
S'2016-10-13'
p494
aF1.5
aF5.0
aa(lp495
S'2016-10-12'
p496
aF0.9047619047619048
aF2.9545454545454546
aa(lp497
S'2017-04-15'
p498
aF0.7391304347826086
aF3.0833333333333335
aa(lp499
S'2017-04-14'
p500
aF0.7241379310344828
aF2.206896551724138
aa(lp501
S'2017-04-17'
p502
aF0.6666666666666666
aF2.4
aa(lp503
S'2017-04-16'
p504
aF0.7094017094017094
aF2.4347826086956523
aa(lp505
S'2016-12-01'
p506
aF1.0833333333333333
aF2.869565217391304
aa(lp507
S'2017-04-13'
p508
aF0.5625
aF3.3043478260869565
aa(lp509
S'2017-04-12'
p510
aF1.0618556701030928
aF4.8
aa(lp511
S'2016-07-11'
p512
aF0.680672268907563
aF2.740740740740741
aa(lp513
S'2016-07-10'
p514
aF0.7391304347826086
aF2.0
aa(lp515
S'2016-07-13'
p516
aF1.247191011235955
aF3.6315789473684212
aa(lp517
S'2016-07-12'
p518
aF1.105263157894737
aF4.5625
aa(lp519
S'2016-07-15'
p520
aF1.02020202020202
aF2.857142857142857
aa(lp521
S'2016-07-14'
p522
aF0.8518518518518519
aF2.076923076923077
aa(lp523
S'2016-05-19'
p524
aF0.7094017094017094
aF2.7037037037037037
aa(lp525
S'2016-05-18'
p526
aF0.7857142857142857
aF3.6818181818181817
aa(lp527
S'2016-05-17'
p528
aF0.941747572815534
aF4.238095238095238
aa(lp529
S'2016-05-16'
p530
aF0.941747572815534
aF3.4761904761904763
aa(lp531
S'2016-05-15'
p532
aF0.7857142857142857
aF2.9565217391304346
aa(lp533
S'2016-05-14'
p534
aF0.7241379310344828
aF2.5185185185185186
aa(lp535
S'2016-05-13'
p536
aF1.2222222222222223
aF4.6
aa(lp537
S'2016-05-12'
p538
aF1.0
aF3.391304347826087
aa(lp539
S'2016-05-11'
p540
aF0.9230769230769231
aF2.3448275862068964
aa(lp541
S'2016-12-09'
p542
aF2.0303030303030303
aF4.555555555555555
aa(lp543
S'2016-06-09'
p544
aF0.7094017094017094
aF1.8333333333333333
aa(lp545
S'2016-06-08'
p546
aF0.7478260869565218
aF3.4285714285714284
aa(lp547
S'2016-06-05'
p548
aF0.8518518518518519
aF3.3636363636363638
aa(lp549
S'2016-06-04'
p550
aF0.8348623853211009
aF2.185185185185185
aa(lp551
S'2016-06-07'
p552
aF0.9230769230769231
aF2.5357142857142856
aa(lp553
S'2016-06-06'
p554
aF1.105263157894737
aF2.2758620689655173
aa(lp555
S'2016-06-01'
p556
aF0.941747572815534
aF3.5217391304347827
aa(lp557
S'2016-06-03'
p558
aF0.7391304347826086
aF2.7777777777777777
aa(lp559
S'2016-06-02'
p560
aF1.173913043478261
aF3.5652173913043477
aa(lp561
S'2017-02-28'
p562
aF1.127659574468085
aF4.157894736842105
aa(lp563
S'2017-02-26'
p564
aF0.7857142857142857
aF3.0
aa(lp565
S'2017-02-27'
p566
aF0.9607843137254902
aF5.2
aa(lp567
S'2017-02-24'
p568
aF0.8518518518518519
aF2.6818181818181817
aa(lp569
S'2017-02-25'
p570
aF0.9230769230769231
aF2.925925925925926
aa(lp571
S'2017-02-22'
p572
aF0.8181818181818182
aF2.52
aa(lp573
S'2017-02-23'
p574
aF0.6
aF2.9565217391304346
aa(lp575
S'2017-02-20'
p576
aF0.9607843137254902
aF2.6818181818181817
aa(lp577
S'2017-02-21'
p578
aF1.5316455696202531
aF3.238095238095238
aa(lp579
S'2016-04-29'
p580
aF1.2988505747126438
aF1.4761904761904763
aa(lp581
S'2016-04-28'
p582
aF0.7543859649122807
aF1.6341463414634145
aa(lp583
S'2016-09-30'
p584
aF1.02020202020202
aF3.3157894736842106
aa(lp585
S'2016-12-31'
p586
aF1.380952380952381
aF1.625
aa(lp587
S'2017-04-07'
p588
aF0.5952380952380952
aF2.411764705882353
aa(lp589
S'2017-04-04'
p590
aF0.8181818181818182
aF2.4285714285714284
aa(lp591
S'2017-04-05'
p592
aF0.7094017094017094
aF2.466666666666667
aa(lp593
S'2017-04-02'
p594
aF0.5873015873015873
aF1.564102564102564
aa(lp595
S'2017-04-03'
p596
aF0.8181818181818182
aF3.227272727272727
aa(lp597
S'2017-04-01'
p598
aF1.0833333333333333
aF3.3181818181818183
aa(lp599
S'2017-04-08'
p600
aF0.7008547008547008
aF3.2222222222222223
aa(lp601
S'2017-04-09'
p602
aF0.42857142857142855
aF1.3265306122448979
aa(lp603
S'2017-01-05'
p604
aF1.0618556701030928
aF2.7916666666666665
aa(lp605
S'2017-01-04'
p606
aF1.127659574468085
aF4.75
aa(lp607
S'2017-01-07'
p608
aF0.9047619047619048
aF3.6153846153846154
aa(lp609
S'2017-01-06'
p610
aF1.02020202020202
aF3.8823529411764706
aa(lp611
S'2017-01-01'
p612
aF1.247191011235955
aF1.2857142857142858
aa(lp613
S'2016-04-27'
p614
aF0.27388535031847133
aF0.2761904761904762
aa(lp615
S'2017-01-03'
p616
aF1.5
aF2.263157894736842
aa(lp617
S'2017-01-02'
p618
aF1.0408163265306123
aF2.4347826086956523
aa(lp619
S'2016-04-26'
p620
aF0.9047619047619048
aF2.0
aa(lp621
S'2017-01-09'
p622
aF0.9801980198019802
aF2.75
aa(lp623
S'2017-01-08'
p624
aF1.0408163265306123
aF2.9583333333333335
aa(lp625
S'2016-05-26'
p626
aF1.1505376344086022
aF5.6
aa(lp627
S'2016-05-27'
p628
aF0.680672268907563
aF4.133333333333334
aa(lp629
S'2016-05-24'
p630
aF0.8518518518518519
aF2.88
aa(lp631
S'2016-05-25'
p632
aF1.3255813953488371
aF3.473684210526316
aa(lp633
S'2016-05-22'
p634
aF0.7857142857142857
aF3.1
aa(lp635
S'2016-05-23'
p636
aF1.1505376344086022
aF6.166666666666667
aa(lp637
S'2016-05-20'
p638
aF0.941747572815534
aF3.8666666666666667
aa(lp639
S'2016-05-21'
p640
aF0.9607843137254902
aF2.740740740740741
aa(lp641
S'2016-07-31'
p642
aF0.5748031496062992
aF1.78125
aa(lp643
S'2016-05-28'
p644
aF0.9801980198019802
aF3.05
aa(lp645
S'2016-05-29'
p646
aF0.7857142857142857
aF1.3243243243243243
aa(lp647
S'2017-03-14'
p648
aF0.7543859649122807
aF2.740740740740741
aa(lp649
S'2017-03-15'
p650
aF0.9801980198019802
aF3.5
aa(lp651
S'2017-03-16'
p652
aF1.4096385542168675
aF3.3333333333333335
aa(lp653
S'2016-11-11'
p654
aF1.105263157894737
aF5.230769230769231
aa(lp655
S'2017-03-10'
p656
aF1.4390243902439024
aF3.55
aa(lp657
S'2017-03-11'
p658
aF0.8691588785046729
aF2.4482758620689653
aa(lp659
S'2017-03-12'
p660
aF0.8867924528301887
aF3.347826086956522
aa(lp661
S'2017-03-13'
p662
aF1.105263157894737
aF4.4375
aa(lp663
S'2017-03-18'
p664
aF1.105263157894737
aF1.7575757575757576
aa(lp665
S'2017-03-19'
p666
aF1.0618556701030928
aF2.1481481481481484
aa(lp667
S'2016-11-30'
p668
aF1.0833333333333333
aF3.3333333333333335
aa(lp669
S'2016-08-07'
p670
aF0.8348623853211009
aF1.1142857142857143
aa(lp671
S'2016-08-06'
p672
aF1.173913043478261
aF2.1379310344827585
aa(lp673
S'2016-08-05'
p674
aF1.105263157894737
aF2.4074074074074074
aa(lp675
S'2016-08-04'
p676
aF0.9607843137254902
aF2.3448275862068964
aa(lp677
S'2016-08-03'
p678
aF0.9607843137254902
aF2.4615384615384617
aa(lp679
S'2016-08-02'
p680
aF0.639344262295082
aF4.176470588235294
aa(lp681
S'2016-08-01'
p682
aF1.0408163265306123
aF3.8095238095238093
aa(lp683
S'2016-11-24'
p684
aF1.3255813953488371
aF2.75
aa(lp685
S'2016-08-09'
p686
aF0.9047619047619048
aF1.7037037037037037
aa(lp687
S'2016-08-08'
p688
aF1.0408163265306123
aF1.7692307692307692
aa(lp689
S'2016-10-20'
p690
aF0.941747572815534
aF3.238095238095238
aa(lp691
S'2016-10-21'
p692
aF1.0618556701030928
aF4.470588235294118
aa(lp693
S'2016-10-22'
p694
aF0.8018018018018018
aF2.2333333333333334
aa(lp695
S'2016-10-23'
p696
aF1.0833333333333333
aF3.15
aa(lp697
S'2016-10-24'
p698
aF0.9801980198019802
aF4.352941176470588
aa(lp699
S'2016-10-25'
p700
aF0.9047619047619048
aF2.4347826086956523
aa(lp701
S'2016-10-26'
p702
aF0.9607843137254902
aF2.7037037037037037
aa(lp703
S'2016-10-27'
p704
aF1.5
aF4.294117647058823
aa(lp705
S'2016-10-28'
p706
aF0.9607843137254902
aF2.9047619047619047
aa(lp707
S'2016-10-29'
p708
aF1.1978021978021978
aF2.4761904761904763
aa(lp709
S'2016-07-24'
p710
aF1.105263157894737
aF2.75
aa(lp711
S'2016-07-25'
p712
aF1.0408163265306123
aF3.5294117647058822
aa(lp713
S'2016-07-26'
p714
aF1.02020202020202
aF6.833333333333333
aa(lp715
S'2016-07-27'
p716
aF0.4925373134328358
aF2.739130434782609
aa(lp717
S'2016-07-20'
p718
aF1.0833333333333333
aF3.125
aa(lp719
S'2016-07-21'
p720
aF0.7699115044247787
aF3.0869565217391304
aa(lp721
S'2016-07-22'
p722
aF0.6949152542372882
aF1.5121951219512195
aa(lp723
S'2016-07-23'
p724
aF0.680672268907563
aF1.8181818181818181
aa(lp725
S'2016-07-28'
p726
aF0.8348623853211009
aF2.0
aa(lp727
S'2016-07-29'
p728
aF0.9047619047619048
aF3.0555555555555554
aa(lp729
S'2016-06-30'
p730
aF1.0833333333333333
aF2.24
aa.