(lp0
(lp1
S'2016-08-30'
p2
aI77
aI123
aI82
aI33
aa(lp3
S'2016-08-31'
p4
aI69
aI131
aI77
aI38
aa(lp5
S'2017-04-19'
p6
aI95
aI105
aI79
aI32
aa(lp7
S'2016-09-08'
p8
aI82
aI118
aI72
aI37
aa(lp9
S'2016-09-09'
p10
aI66
aI134
aI81
aI40
aa(lp11
S'2016-09-04'
p12
aI77
aI123
aI63
aI37
aa(lp13
S'2016-09-05'
p14
aI64
aI136
aI68
aI34
aa(lp15
S'2016-09-06'
p16
aI77
aI123
aI78
aI27
aa(lp17
S'2016-09-07'
p18
aI72
aI128
aI69
aI34
aa(lp19
S'2016-09-01'
p20
aI77
aI123
aI69
aI38
aa(lp21
S'2016-09-02'
p22
aI66
aI134
aI84
aI21
aa(lp23
S'2016-09-03'
p24
aI67
aI133
aI60
aI29
aa(lp25
S'2016-12-04'
p26
aI73
aI127
aI55
aI36
aa(lp27
S'2016-12-05'
p28
aI66
aI134
aI75
aI38
aa(lp29
S'2016-12-06'
p30
aI91
aI109
aI77
aI30
aa(lp31
S'2016-12-07'
p32
aI91
aI109
aI71
aI21
aa(lp33
S'2017-04-11'
p34
aI82
aI118
aI79
aI28
aa(lp35
S'2017-04-10'
p36
aI78
aI122
aI72
aI35
aa(lp37
S'2016-12-02'
p38
aI71
aI130
aI79
aI34
aa(lp39
S'2016-12-03'
p40
aI66
aI133
aI60
aI35
aa(lp41
S'2017-01-30'
p42
aI76
aI125
aI65
aI28
aa(lp43
S'2017-01-31'
p44
aI39
aI46
aI31
aI12
aa(lp45
S'2016-12-08'
p46
aI90
aI110
aI83
aI28
aa(lp47
S'2017-04-18'
p48
aI86
aI114
aI74
aI29
aa(lp49
S'2017-03-09'
p50
aI71
aI129
aI78
aI34
aa(lp51
S'2017-03-08'
p52
aI80
aI121
aI73
aI26
aa(lp53
S'2016-05-31'
p54
aI65
aI135
aI46
aI34
aa(lp55
S'2016-05-30'
p56
aI64
aI136
aI48
aI49
aa(lp57
S'2017-03-03'
p58
aI85
aI116
aI75
aI26
aa(lp59
S'2017-03-02'
p60
aI84
aI116
aI73
aI26
aa(lp61
S'2017-03-01'
p62
aI102
aI98
aI83
aI24
aa(lp63
S'2017-03-07'
p64
aI77
aI122
aI85
aI27
aa(lp65
S'2017-03-06'
p66
aI86
aI114
aI88
aI24
aa(lp67
S'2017-03-05'
p68
aI79
aI121
aI77
aI25
aa(lp69
S'2017-03-04'
p70
aI76
aI124
aI78
aI33
aa(lp71
S'2016-07-17'
p72
aI66
aI134
aI62
aI30
aa(lp73
S'2016-07-16'
p74
aI64
aI136
aI62
aI37
aa(lp75
S'2016-11-23'
p76
aI76
aI124
aI73
aI40
aa(lp77
S'2016-11-22'
p78
aI79
aI121
aI74
aI44
aa(lp79
S'2016-11-21'
p80
aI96
aI104
aI84
aI20
aa(lp81
S'2016-11-20'
p82
aI81
aI119
aI58
aI23
aa(lp83
S'2016-11-27'
p84
aI59
aI140
aI73
aI32
aa(lp85
S'2016-11-26'
p86
aI68
aI132
aI71
aI28
aa(lp87
S'2016-11-25'
p88
aI67
aI133
aI74
aI35
aa(lp89
S'2016-07-18'
p90
aI72
aI128
aI68
aI25
aa(lp91
S'2016-11-29'
p92
aI85
aI115
aI64
aI28
aa(lp93
S'2016-11-28'
p94
aI85
aI115
aI75
aI40
aa(lp95
S'2017-03-17'
p96
aI71
aI129
aI63
aI28
aa(lp97
S'2016-05-10'
p98
aI93
aI107
aI77
aI24
aa(lp99
S'2016-10-31'
p100
aI70
aI129
aI79
aI23
aa(lp101
S'2016-10-30'
p102
aI70
aI130
aI72
aI29
aa(lp103
S'2017-04-06'
p104
aI74
aI126
aI91
aI27
aa(lp105
S'2016-06-27'
p106
aI70
aI130
aI73
aI27
aa(lp107
S'2016-06-26'
p108
aI82
aI118
aI73
aI40
aa(lp109
S'2016-06-25'
p110
aI66
aI134
aI65
aI32
aa(lp111
S'2016-06-24'
p112
aI90
aI110
aI74
aI27
aa(lp113
S'2016-06-23'
p114
aI75
aI125
aI95
aI22
aa(lp115
S'2016-06-22'
p116
aI86
aI114
aI71
aI27
aa(lp117
S'2016-06-21'
p118
aI78
aI122
aI75
aI23
aa(lp119
S'2016-06-20'
p120
aI84
aI116
aI76
aI31
aa(lp121
S'2016-06-29'
p122
aI82
aI118
aI84
aI36
aa(lp123
S'2016-06-28'
p124
aI84
aI116
aI75
aI40
aa(lp125
S'2016-12-30'
p126
aI76
aI124
aI81
aI35
aa(lp127
S'2017-03-30'
p128
aI101
aI98
aI61
aI25
aa(lp129
S'2017-03-31'
p130
aI78
aI122
aI71
aI39
aa(lp131
S'2016-12-19'
p132
aI83
aI117
aI78
aI24
aa(lp133
S'2016-11-18'
p134
aI90
aI110
aI82
aI14
aa(lp135
S'2016-11-19'
p136
aI100
aI100
aI64
aI19
aa(lp137
S'2016-11-12'
p138
aI74
aI126
aI75
aI44
aa(lp139
S'2016-11-13'
p140
aI69
aI131
aI71
aI44
aa(lp141
S'2016-11-10'
p142
aI60
aI140
aI70
aI29
aa(lp143
S'2016-07-30'
p144
aI82
aI118
aI72
aI31
aa(lp145
S'2016-11-16'
p146
aI78
aI122
aI70
aI33
aa(lp147
S'2016-11-17'
p148
aI68
aI132
aI85
aI23
aa(lp149
S'2016-11-14'
p150
aI84
aI116
aI51
aI30
aa(lp151
S'2016-11-15'
p152
aI84
aI116
aI91
aI28
aa(lp153
S'2017-04-20'
p154
aI80
aI120
aI76
aI29
aa(lp155
S'2016-09-19'
p156
aI82
aI118
aI62
aI37
aa(lp157
S'2016-09-18'
p158
aI60
aI140
aI69
aI34
aa(lp159
S'2016-08-29'
p160
aI84
aI116
aI62
aI35
aa(lp161
S'2016-08-28'
p162
aI80
aI120
aI58
aI48
aa(lp163
S'2016-08-25'
p164
aI102
aI98
aI58
aI26
aa(lp165
S'2016-08-24'
p166
aI63
aI137
aI64
aI42
aa(lp167
S'2016-08-27'
p168
aI82
aI118
aI57
aI26
aa(lp169
S'2016-08-26'
p170
aI76
aI124
aI76
aI33
aa(lp171
S'2016-08-21'
p172
aI62
aI138
aI69
aI40
aa(lp173
S'2016-08-20'
p174
aI61
aI139
aI64
aI32
aa(lp175
S'2016-08-23'
p176
aI66
aI134
aI72
aI24
aa(lp177
S'2016-08-22'
p178
aI70
aI130
aI63
aI30
aa(lp179
S'2017-02-01'
p180
aI94
aI106
aI79
aI30
aa(lp181
S'2017-02-02'
p182
aI85
aI115
aI66
aI28
aa(lp183
S'2017-02-03'
p184
aI74
aI126
aI77
aI36
aa(lp185
S'2017-02-04'
p186
aI83
aI117
aI79
aI24
aa(lp187
S'2017-02-05'
p188
aI66
aI134
aI71
aI34
aa(lp189
S'2017-02-06'
p190
aI77
aI123
aI81
aI28
aa(lp191
S'2017-02-07'
p192
aI80
aI119
aI66
aI31
aa(lp193
S'2017-02-08'
p194
aI87
aI113
aI79
aI26
aa(lp195
S'2017-02-09'
p196
aI84
aI116
aI86
aI28
aa(lp197
S'2016-04-30'
p198
aI76
aI124
aI80
aI40
aa(lp199
S'2016-10-08'
p200
aI68
aI131
aI85
aI34
aa(lp201
S'2016-10-09'
p202
aI80
aI120
aI50
aI38
aa(lp203
S'2016-10-06'
p204
aI89
aI111
aI71
aI35
aa(lp205
S'2016-10-07'
p206
aI78
aI123
aI66
aI24
aa(lp207
S'2016-10-04'
p208
aI86
aI114
aI71
aI26
aa(lp209
S'2016-10-05'
p210
aI72
aI128
aI73
aI28
aa(lp211
S'2016-10-02'
p212
aI59
aI141
aI68
aI48
aa(lp213
S'2016-10-03'
p214
aI64
aI136
aI60
aI52
aa(lp215
S'2016-10-01'
p216
aI68
aI132
aI66
aI45
aa(lp217
S'2016-09-13'
p218
aI62
aI138
aI74
aI38
aa(lp219
S'2016-09-12'
p220
aI88
aI112
aI81
aI38
aa(lp221
S'2016-09-11'
p222
aI65
aI135
aI65
aI46
aa(lp223
S'2016-09-10'
p224
aI48
aI152
aI66
aI57
aa(lp225
S'2016-09-17'
p226
aI58
aI142
aI70
aI37
aa(lp227
S'2016-09-16'
p228
aI77
aI123
aI89
aI36
aa(lp229
S'2016-09-15'
p230
aI71
aI129
aI83
aI36
aa(lp231
S'2016-09-14'
p232
aI82
aI118
aI75
aI35
aa(lp233
S'2016-12-13'
p234
aI79
aI121
aI80
aI35
aa(lp235
S'2016-12-12'
p236
aI92
aI108
aI80
aI27
aa(lp237
S'2016-12-11'
p238
aI85
aI115
aI69
aI31
aa(lp239
S'2016-12-10'
p240
aI70
aI130
aI75
aI26
aa(lp241
S'2016-12-17'
p242
aI69
aI131
aI57
aI26
aa(lp243
S'2016-12-16'
p244
aI60
aI140
aI79
aI37
aa(lp245
S'2016-12-15'
p246
aI72
aI128
aI81
aI32
aa(lp247
S'2016-12-14'
p248
aI75
aI125
aI77
aI23
aa(lp249
S'2017-01-29'
p250
aI85
aI115
aI59
aI30
aa(lp251
S'2017-01-28'
p252
aI90
aI110
aI78
aI19
aa(lp253
S'2017-01-27'
p254
aI87
aI113
aI69
aI23
aa(lp255
S'2017-01-26'
p256
aI85
aI115
aI75
aI19
aa(lp257
S'2017-01-25'
p258
aI76
aI124
aI75
aI32
aa(lp259
S'2017-01-24'
p260
aI95
aI105
aI82
aI25
aa(lp261
S'2017-01-23'
p262
aI89
aI111
aI83
aI25
aa(lp263
S'2017-01-22'
p264
aI80
aI120
aI76
aI30
aa(lp265
S'2017-01-21'
p266
aI82
aI118
aI76
aI27
aa(lp267
S'2017-01-20'
p268
aI73
aI127
aI83
aI29
aa(lp269
S'2016-07-02'
p270
aI55
aI145
aI77
aI42
aa(lp271
S'2016-07-03'
p272
aI65
aI135
aI74
aI37
aa(lp273
S'2016-07-01'
p274
aI94
aI106
aI83
aI29
aa(lp275
S'2016-07-06'
p276
aI78
aI122
aI60
aI28
aa(lp277
S'2016-07-07'
p278
aI80
aI120
aI72
aI26
aa(lp279
S'2016-07-04'
p280
aI64
aI136
aI68
aI28
aa(lp281
S'2016-07-05'
p282
aI79
aI120
aI75
aI29
aa(lp283
S'2016-05-01'
p284
aI74
aI126
aI73
aI41
aa(lp285
S'2016-07-08'
p286
aI69
aI131
aI66
aI46
aa(lp287
S'2016-07-09'
p288
aI4
aI4
aI4
aI1
aa(lp289
S'2016-05-04'
p290
aI79
aI121
aI76
aI18
aa(lp291
S'2016-05-05'
p292
aI60
aI140
aI84
aI32
aa(lp293
S'2016-05-06'
p294
aI57
aI143
aI95
aI28
aa(lp295
S'2016-05-07'
p296
aI43
aI157
aI86
aI22
aa(lp297
S'2016-06-18'
p298
aI60
aI140
aI68
aI39
aa(lp299
S'2016-06-19'
p300
aI74
aI126
aI64
aI32
aa(lp301
S'2016-06-16'
p302
aI65
aI134
aI71
aI23
aa(lp303
S'2016-06-17'
p304
aI89
aI111
aI73
aI31
aa(lp305
S'2016-06-14'
p306
aI70
aI130
aI73
aI31
aa(lp307
S'2016-06-15'
p308
aI58
aI143
aI73
aI37
aa(lp309
S'2016-06-12'
p310
aI50
aI150
aI68
aI43
aa(lp311
S'2016-06-13'
p312
aI80
aI120
aI75
aI23
aa(lp313
S'2016-06-10'
p314
aI75
aI125
aI78
aI34
aa(lp315
S'2016-06-11'
p316
aI58
aI142
aI74
aI38
aa(lp317
S'2016-05-08'
p318
aI57
aI143
aI68
aI39
aa(lp319
S'2016-05-09'
p320
aI88
aI112
aI58
aI31
aa(lp321
S'2016-05-02'
p322
aI78
aI122
aI68
aI29
aa(lp323
S'2016-05-03'
p324
aI73
aI127
aI67
aI28
aa(lp325
S'2017-03-23'
p326
aI75
aI125
aI77
aI34
aa(lp327
S'2016-12-18'
p328
aI62
aI138
aI87
aI32
aa(lp329
S'2016-09-28'
p330
aI78
aI122
aI65
aI36
aa(lp331
S'2016-09-29'
p332
aI72
aI128
aI77
aI51
aa(lp333
S'2016-09-22'
p334
aI75
aI125
aI73
aI35
aa(lp335
S'2016-09-23'
p336
aI86
aI114
aI74
aI28
aa(lp337
S'2016-09-20'
p338
aI70
aI130
aI71
aI31
aa(lp339
S'2016-09-21'
p340
aI77
aI123
aI72
aI24
aa(lp341
S'2016-09-26'
p342
aI79
aI121
aI75
aI24
aa(lp343
S'2016-09-27'
p344
aI84
aI116
aI83
aI44
aa(lp345
S'2016-09-24'
p346
aI72
aI128
aI81
aI37
aa(lp347
S'2016-09-25'
p348
aI52
aI148
aI60
aI45
aa(lp349
S'2016-12-22'
p350
aI77
aI123
aI71
aI34
aa(lp351
S'2016-12-23'
p352
aI75
aI125
aI71
aI38
aa(lp353
S'2016-12-20'
p354
aI78
aI122
aI79
aI24
aa(lp355
S'2016-12-21'
p356
aI83
aI117
aI72
aI36
aa(lp357
S'2016-12-26'
p358
aI66
aI134
aI77
aI39
aa(lp359
S'2016-12-27'
p360
aI71
aI129
aI65
aI43
aa(lp361
S'2016-12-24'
p362
aI80
aI120
aI68
aI41
aa(lp363
S'2016-12-25'
p364
aI79
aI121
aI79
aI48
aa(lp365
S'2016-12-28'
p366
aI76
aI124
aI83
aI34
aa(lp367
S'2016-12-29'
p368
aI69
aI131
aI62
aI33
aa(lp369
S'2017-01-16'
p370
aI83
aI117
aI69
aI24
aa(lp371
S'2017-01-17'
p372
aI80
aI120
aI66
aI31
aa(lp373
S'2017-01-14'
p374
aI89
aI111
aI77
aI35
aa(lp375
S'2017-01-15'
p376
aI79
aI121
aI66
aI34
aa(lp377
S'2017-01-12'
p378
aI74
aI126
aI67
aI29
aa(lp379
S'2017-01-13'
p380
aI89
aI111
aI78
aI22
aa(lp381
S'2017-01-10'
p382
aI72
aI128
aI81
aI44
aa(lp383
S'2017-01-11'
p384
aI52
aI148
aI55
aI56
aa(lp385
S'2017-01-18'
p386
aI82
aI118
aI79
aI26
aa(lp387
S'2017-01-19'
p388
aI75
aI125
aI78
aI20
aa(lp389
S'2017-03-21'
p390
aI75
aI125
aI80
aI23
aa(lp391
S'2017-03-20'
p392
aI73
aI127
aI64
aI28
aa(lp393
S'2016-07-19'
p394
aI68
aI132
aI78
aI24
aa(lp395
S'2017-03-22'
p396
aI86
aI114
aI74
aI34
aa(lp397
S'2017-03-25'
p398
aI65
aI135
aI61
aI40
aa(lp399
S'2017-03-24'
p400
aI64
aI136
aI65
aI30
aa(lp401
S'2017-03-27'
p402
aI76
aI124
aI75
aI34
aa(lp403
S'2017-03-26'
p404
aI69
aI131
aI62
aI32
aa(lp405
S'2017-03-29'
p406
aI87
aI113
aI75
aI29
aa(lp407
S'2017-03-28'
p408
aI82
aI118
aI75
aI34
aa(lp409
S'2016-11-09'
p410
aI81
aI119
aI78
aI30
aa(lp411
S'2016-11-08'
p412
aI80
aI120
aI78
aI37
aa(lp413
S'2016-11-01'
p414
aI58
aI142
aI71
aI35
aa(lp415
S'2016-11-03'
p416
aI82
aI118
aI99
aI32
aa(lp417
S'2016-11-02'
p418
aI73
aI127
aI105
aI18
aa(lp419
S'2016-11-05'
p420
aI67
aI133
aI66
aI33
aa(lp421
S'2016-11-04'
p422
aI67
aI133
aI80
aI28
aa(lp423
S'2016-11-07'
p424
aI97
aI103
aI84
aI25
aa(lp425
S'2016-11-06'
p426
aI65
aI135
aI61
aI39
aa(lp427
S'2016-08-10'
p428
aI71
aI129
aI78
aI44
aa(lp429
S'2016-08-11'
p430
aI67
aI133
aI82
aI33
aa(lp431
S'2016-08-12'
p432
aI59
aI141
aI74
aI35
aa(lp433
S'2016-08-13'
p434
aI78
aI122
aI64
aI41
aa(lp435
S'2016-08-14'
p436
aI75
aI125
aI70
aI43
aa(lp437
S'2016-08-15'
p438
aI68
aI132
aI90
aI25
aa(lp439
S'2016-08-16'
p440
aI73
aI127
aI80
aI34
aa(lp441
S'2016-08-17'
p442
aI87
aI113
aI70
aI24
aa(lp443
S'2016-08-18'
p444
aI73
aI127
aI67
aI40
aa(lp445
S'2016-08-19'
p446
aI69
aI131
aI77
aI38
aa(lp447
S'2017-02-17'
p448
aI106
aI94
aI78
aI23
aa(lp449
S'2017-02-16'
p450
aI82
aI118
aI74
aI25
aa(lp451
S'2017-02-15'
p452
aI91
aI109
aI73
aI25
aa(lp453
S'2017-02-14'
p454
aI71
aI129
aI82
aI39
aa(lp455
S'2017-02-13'
p456
aI103
aI97
aI68
aI23
aa(lp457
S'2017-02-12'
p458
aI75
aI125
aI58
aI30
aa(lp459
S'2017-02-11'
p460
aI81
aI119
aI80
aI25
aa(lp461
S'2017-02-10'
p462
aI97
aI103
aI79
aI25
aa(lp463
S'2016-04-21'
p464
aI74
aI126
aI56
aI32
aa(lp465
S'2016-04-23'
p466
aI53
aI147
aI58
aI68
aa(lp467
S'2016-04-22'
p468
aI74
aI126
aI55
aI46
aa(lp469
S'2016-04-25'
p470
aI75
aI125
aI74
aI46
aa(lp471
S'2016-04-24'
p472
aI50
aI150
aI46
aI68
aa(lp473
S'2017-02-19'
p474
aI78
aI122
aI64
aI29
aa(lp475
S'2017-02-18'
p476
aI79
aI121
aI73
aI45
aa(lp477
S'2016-10-19'
p478
aI89
aI111
aI83
aI43
aa(lp479
S'2016-10-18'
p480
aI70
aI130
aI76
aI40
aa(lp481
S'2016-10-15'
p482
aI58
aI142
aI65
aI46
aa(lp483
S'2016-10-14'
p484
aI68
aI132
aI74
aI37
aa(lp485
S'2016-10-17'
p486
aI78
aI122
aI78
aI34
aa(lp487
S'2016-10-16'
p488
aI68
aI132
aI68
aI43
aa(lp489
S'2016-10-11'
p490
aI71
aI129
aI79
aI23
aa(lp491
S'2016-10-10'
p492
aI77
aI123
aI72
aI32
aa(lp493
S'2016-10-13'
p494
aI75
aI126
aI80
aI32
aa(lp495
S'2016-10-12'
p496
aI71
aI129
aI75
aI35
aa(lp497
S'2017-04-15'
p498
aI76
aI124
aI77
aI34
aa(lp499
S'2017-04-14'
p500
aI75
aI125
aI73
aI30
aa(lp501
S'2017-04-17'
p502
aI65
aI135
aI83
aI38
aa(lp503
S'2017-04-16'
p504
aI63
aI137
aI62
aI50
aa(lp505
S'2016-12-01'
p506
aI103
aI97
aI77
aI29
aa(lp507
S'2017-04-13'
p508
aI87
aI113
aI89
aI27
aa(lp509
S'2017-04-12'
p510
aI82
aI118
aI77
aI36
aa(lp511
S'2016-07-11'
p512
aI84
aI116
aI84
aI21
aa(lp513
S'2016-07-10'
p514
aI69
aI131
aI71
aI28
aa(lp515
S'2016-07-13'
p516
aI103
aI97
aI75
aI20
aa(lp517
S'2016-07-12'
p518
aI89
aI111
aI79
aI20
aa(lp519
S'2016-07-15'
p520
aI83
aI117
aI79
aI31
aa(lp521
S'2016-07-14'
p522
aI73
aI127
aI86
aI19
aa(lp523
S'2016-05-19'
p524
aI62
aI138
aI83
aI46
aa(lp525
S'2016-05-18'
p526
aI59
aI141
aI69
aI34
aa(lp527
S'2016-05-17'
p528
aI73
aI127
aI70
aI44
aa(lp529
S'2016-05-16'
p530
aI71
aI129
aI66
aI27
aa(lp531
S'2016-05-15'
p532
aI67
aI133
aI67
aI40
aa(lp533
S'2016-05-14'
p534
aI69
aI131
aI70
aI35
aa(lp535
S'2016-05-13'
p536
aI76
aI124
aI67
aI31
aa(lp537
S'2016-05-12'
p538
aI87
aI113
aI88
aI33
aa(lp539
S'2016-05-11'
p540
aI73
aI127
aI87
aI37
aa(lp541
S'2016-12-09'
p542
aI20
aI33
aI23
aI7
aa(lp543
S'2016-06-09'
p544
aI73
aI127
aI76
aI34
aa(lp545
S'2016-06-08'
p546
aI73
aI127
aI79
aI32
aa(lp547
S'2016-06-05'
p548
aI61
aI139
aI65
aI40
aa(lp549
S'2016-06-04'
p550
aI66
aI134
aI68
aI36
aa(lp551
S'2016-06-07'
p552
aI90
aI110
aI80
aI31
aa(lp553
S'2016-06-06'
p554
aI86
aI114
aI81
aI34
aa(lp555
S'2016-06-01'
p556
aI85
aI115
aI59
aI36
aa(lp557
S'2016-06-03'
p558
aI76
aI124
aI63
aI37
aa(lp559
S'2016-06-02'
p560
aI79
aI121
aI64
aI33
aa(lp561
S'2017-02-28'
p562
aI81
aI119
aI67
aI37
aa(lp563
S'2017-02-26'
p564
aI79
aI121
aI66
aI32
aa(lp565
S'2017-02-27'
p566
aI80
aI120
aI73
aI25
aa(lp567
S'2017-02-24'
p568
aI103
aI97
aI87
aI17
aa(lp569
S'2017-02-25'
p570
aI81
aI119
aI73
aI28
aa(lp571
S'2017-02-22'
p572
aI80
aI120
aI73
aI29
aa(lp573
S'2017-02-23'
p574
aI87
aI113
aI80
aI23
aa(lp575
S'2017-02-20'
p576
aI91
aI109
aI77
aI27
aa(lp577
S'2017-02-21'
p578
aI104
aI96
aI77
aI23
aa(lp579
S'2016-04-29'
p580
aI94
aI106
aI67
aI38
aa(lp581
S'2016-04-28'
p582
aI79
aI121
aI81
aI28
aa(lp583
S'2016-09-30'
p584
aI72
aI128
aI74
aI37
aa(lp585
S'2016-12-31'
p586
aI82
aI118
aI76
aI36
aa(lp587
S'2017-04-07'
p588
aI102
aI99
aI93
aI27
aa(lp589
S'2017-04-04'
p590
aI97
aI103
aI86
aI27
aa(lp591
S'2017-04-05'
p592
aI71
aI129
aI89
aI25
aa(lp593
S'2017-04-02'
p594
aI74
aI126
aI55
aI36
aa(lp595
S'2017-04-03'
p596
aI65
aI135
aI77
aI33
aa(lp597
S'2017-04-01'
p598
aI75
aI125
aI83
aI20
aa(lp599
S'2017-04-08'
p600
aI86
aI113
aI67
aI29
aa(lp601
S'2017-04-09'
p602
aI84
aI116
aI75
aI36
aa(lp603
S'2017-01-05'
p604
aI75
aI125
aI84
aI27
aa(lp605
S'2017-01-04'
p606
aI90
aI110
aI65
aI36
aa(lp607
S'2017-01-07'
p608
aI84
aI116
aI70
aI30
aa(lp609
S'2017-01-06'
p610
aI85
aI115
aI73
aI24
aa(lp611
S'2017-01-01'
p612
aI103
aI97
aI71
aI28
aa(lp613
S'2016-04-27'
p614
aI53
aI147
aI57
aI53
aa(lp615
S'2017-01-03'
p616
aI82
aI118
aI74
aI27
aa(lp617
S'2017-01-02'
p618
aI67
aI133
aI54
aI37
aa(lp619
S'2016-04-26'
p620
aI63
aI137
aI79
aI36
aa(lp621
S'2017-01-09'
p622
aI73
aI127
aI56
aI55
aa(lp623
S'2017-01-08'
p624
aI82
aI118
aI79
aI33
aa(lp625
S'2016-05-26'
p626
aI71
aI129
aI59
aI30
aa(lp627
S'2016-05-27'
p628
aI62
aI138
aI54
aI35
aa(lp629
S'2016-05-24'
p630
aI67
aI133
aI70
aI43
aa(lp631
S'2016-05-25'
p632
aI58
aI142
aI66
aI42
aa(lp633
S'2016-05-22'
p634
aI72
aI128
aI70
aI34
aa(lp635
S'2016-05-23'
p636
aI71
aI129
aI71
aI44
aa(lp637
S'2016-05-20'
p638
aI62
aI138
aI58
aI41
aa(lp639
S'2016-05-21'
p640
aI68
aI132
aI69
aI44
aa(lp641
S'2016-07-31'
p642
aI60
aI140
aI85
aI28
aa(lp643
S'2016-05-28'
p644
aI68
aI132
aI71
aI41
aa(lp645
S'2016-05-29'
p646
aI66
aI134
aI56
aI53
aa(lp647
S'2017-03-14'
p648
aI76
aI124
aI79
aI18
aa(lp649
S'2017-03-15'
p650
aI85
aI115
aI70
aI37
aa(lp651
S'2017-03-16'
p652
aI80
aI120
aI78
aI25
aa(lp653
S'2016-11-11'
p654
aI81
aI119
aI80
aI28
aa(lp655
S'2017-03-10'
p656
aI63
aI137
aI67
aI29
aa(lp657
S'2017-03-11'
p658
aI62
aI138
aI76
aI37
aa(lp659
S'2017-03-12'
p660
aI74
aI126
aI76
aI40
aa(lp661
S'2017-03-13'
p662
aI93
aI107
aI75
aI21
aa(lp663
S'2017-03-18'
p664
aI69
aI131
aI66
aI33
aa(lp665
S'2017-03-19'
p666
aI77
aI123
aI70
aI31
aa(lp667
S'2016-11-30'
p668
aI83
aI117
aI86
aI26
aa(lp669
S'2016-08-07'
p670
aI77
aI123
aI68
aI38
aa(lp671
S'2016-08-06'
p672
aI64
aI136
aI71
aI34
aa(lp673
S'2016-08-05'
p674
aI76
aI124
aI83
aI28
aa(lp675
S'2016-08-04'
p676
aI78
aI122
aI81
aI29
aa(lp677
S'2016-08-03'
p678
aI72
aI128
aI52
aI27
aa(lp679
S'2016-08-02'
p680
aI80
aI120
aI68
aI35
aa(lp681
S'2016-08-01'
p682
aI80
aI120
aI83
aI24
aa(lp683
S'2016-11-24'
p684
aI72
aI128
aI72
aI37
aa(lp685
S'2016-08-09'
p686
aI62
aI138
aI74
aI41
aa(lp687
S'2016-08-08'
p688
aI67
aI133
aI62
aI37
aa(lp689
S'2016-10-20'
p690
aI88
aI112
aI71
aI25
aa(lp691
S'2016-10-21'
p692
aI87
aI113
aI84
aI23
aa(lp693
S'2016-10-22'
p694
aI58
aI142
aI86
aI25
aa(lp695
S'2016-10-23'
p696
aI73
aI127
aI68
aI42
aa(lp697
S'2016-10-24'
p698
aI88
aI112
aI79
aI29
aa(lp699
S'2016-10-25'
p700
aI93
aI107
aI71
aI29
aa(lp701
S'2016-10-26'
p702
aI84
aI116
aI122
aI29
aa(lp703
S'2016-10-27'
p704
aI87
aI114
aI89
aI26
aa(lp705
S'2016-10-28'
p706
aI87
aI113
aI106
aI25
aa(lp707
S'2016-10-29'
p708
aI80
aI120
aI91
aI25
aa(lp709
S'2016-07-24'
p710
aI68
aI132
aI61
aI37
aa(lp711
S'2016-07-25'
p712
aI77
aI123
aI76
aI18
aa(lp713
S'2016-07-26'
p714
aI72
aI128
aI56
aI36
aa(lp715
S'2016-07-27'
p716
aI74
aI126
aI80
aI27
aa(lp717
S'2016-07-20'
p718
aI85
aI115
aI75
aI31
aa(lp719
S'2016-07-21'
p720
aI74
aI126
aI84
aI27
aa(lp721
S'2016-07-22'
p722
aI86
aI114
aI75
aI33
aa(lp723
S'2016-07-23'
p724
aI72
aI128
aI65
aI35
aa(lp725
S'2016-07-28'
p726
aI81
aI119
aI90
aI26
aa(lp727
S'2016-07-29'
p728
aI82
aI118
aI77
aI30
aa(lp729
S'2016-06-30'
p730
aI91
aI109
aI69
aI33
aa.