(lp0
(lp1
S'2016-08-30'
p2
aF0.6260162601626016
aF2.484848484848485
aa(lp3
S'2016-08-31'
p4
aF0.5267175572519084
aF2.026315789473684
aa(lp5
S'2017-04-19'
p6
aF0.9047619047619048
aF2.46875
aa(lp7
S'2016-09-08'
p8
aF0.6949152542372882
aF1.945945945945946
aa(lp9
S'2016-09-09'
p10
aF0.4925373134328358
aF2.025
aa(lp11
S'2016-09-04'
p12
aF0.6260162601626016
aF1.7027027027027026
aa(lp13
S'2016-09-05'
p14
aF0.47058823529411764
aF2.0
aa(lp15
S'2016-09-06'
p16
aF0.6260162601626016
aF2.888888888888889
aa(lp17
S'2016-09-07'
p18
aF0.5625
aF2.0294117647058822
aa(lp19
S'2016-09-01'
p20
aF0.6260162601626016
aF1.8157894736842106
aa(lp21
S'2016-09-02'
p22
aF0.4925373134328358
aF4.0
aa(lp23
S'2016-09-03'
p24
aF0.5037593984962406
aF2.0689655172413794
aa(lp25
S'2016-12-04'
p26
aF0.5748031496062992
aF1.5277777777777777
aa(lp27
S'2016-12-05'
p28
aF0.4925373134328358
aF1.9736842105263157
aa(lp29
S'2016-12-06'
p30
aF0.8348623853211009
aF2.566666666666667
aa(lp31
S'2016-12-07'
p32
aF0.8348623853211009
aF3.380952380952381
aa(lp33
S'2017-04-11'
p34
aF0.6949152542372882
aF2.8214285714285716
aa(lp35
S'2017-04-10'
p36
aF0.639344262295082
aF2.057142857142857
aa(lp37
S'2016-12-02'
p38
aF0.5461538461538461
aF2.323529411764706
aa(lp39
S'2016-12-03'
p40
aF0.49624060150375937
aF1.7142857142857142
aa(lp41
S'2017-01-30'
p42
aF0.608
aF2.3214285714285716
aa(lp43
S'2017-01-31'
p44
aF0.8478260869565217
aF2.5833333333333335
aa(lp45
S'2016-12-08'
p46
aF0.8181818181818182
aF2.9642857142857144
aa(lp47
S'2017-04-18'
p48
aF0.7543859649122807
aF2.5517241379310347
aa(lp49
S'2017-03-09'
p50
aF0.5503875968992248
aF2.2941176470588234
aa(lp51
S'2017-03-08'
p52
aF0.6611570247933884
aF2.8076923076923075
aa(lp53
S'2016-05-31'
p54
aF0.48148148148148145
aF1.3529411764705883
aa(lp55
S'2016-05-30'
p56
aF0.47058823529411764
aF0.9795918367346939
aa(lp57
S'2017-03-03'
p58
aF0.7327586206896551
aF2.8846153846153846
aa(lp59
S'2017-03-02'
p60
aF0.7241379310344828
aF2.8076923076923075
aa(lp61
S'2017-03-01'
p62
aF1.0408163265306123
aF3.4583333333333335
aa(lp63
S'2017-03-07'
p64
aF0.6311475409836066
aF3.1481481481481484
aa(lp65
S'2017-03-06'
p66
aF0.7543859649122807
aF3.6666666666666665
aa(lp67
S'2017-03-05'
p68
aF0.6528925619834711
aF3.08
aa(lp69
S'2017-03-04'
p70
aF0.6129032258064516
aF2.3636363636363638
aa(lp71
S'2016-07-17'
p72
aF0.4925373134328358
aF2.066666666666667
aa(lp73
S'2016-07-16'
p74
aF0.47058823529411764
aF1.6756756756756757
aa(lp75
S'2016-11-23'
p76
aF0.6129032258064516
aF1.825
aa(lp77
S'2016-11-22'
p78
aF0.6528925619834711
aF1.6818181818181819
aa(lp79
S'2016-11-21'
p80
aF0.9230769230769231
aF4.2
aa(lp81
S'2016-11-20'
p82
aF0.680672268907563
aF2.5217391304347827
aa(lp83
S'2016-11-27'
p84
aF0.42142857142857143
aF2.28125
aa(lp85
S'2016-11-26'
p86
aF0.5151515151515151
aF2.5357142857142856
aa(lp87
S'2016-11-25'
p88
aF0.5037593984962406
aF2.1142857142857143
aa(lp89
S'2016-07-18'
p90
aF0.5625
aF2.72
aa(lp91
S'2016-11-29'
p92
aF0.7391304347826086
aF2.2857142857142856
aa(lp93
S'2016-11-28'
p94
aF0.7391304347826086
aF1.875
aa(lp95
S'2017-03-17'
p96
aF0.5503875968992248
aF2.25
aa(lp97
S'2016-05-10'
p98
aF0.8691588785046729
aF3.2083333333333335
aa(lp99
S'2016-10-31'
p100
aF0.5426356589147286
aF3.4347826086956523
aa(lp101
S'2016-10-30'
p102
aF0.5384615384615384
aF2.4827586206896552
aa(lp103
S'2017-04-06'
p104
aF0.5873015873015873
aF3.3703703703703702
aa(lp105
S'2016-06-27'
p106
aF0.5384615384615384
aF2.7037037037037037
aa(lp107
S'2016-06-26'
p108
aF0.6949152542372882
aF1.825
aa(lp109
S'2016-06-25'
p110
aF0.4925373134328358
aF2.03125
aa(lp111
S'2016-06-24'
p112
aF0.8181818181818182
aF2.740740740740741
aa(lp113
S'2016-06-23'
p114
aF0.6
aF4.318181818181818
aa(lp115
S'2016-06-22'
p116
aF0.7543859649122807
aF2.6296296296296298
aa(lp117
S'2016-06-21'
p118
aF0.639344262295082
aF3.260869565217391
aa(lp119
S'2016-06-20'
p120
aF0.7241379310344828
aF2.4516129032258065
aa(lp121
S'2016-06-29'
p122
aF0.6949152542372882
aF2.3333333333333335
aa(lp123
S'2016-06-28'
p124
aF0.7241379310344828
aF1.875
aa(lp125
S'2016-12-30'
p126
aF0.6129032258064516
aF2.3142857142857145
aa(lp127
S'2017-03-30'
p128
aF1.030612244897959
aF2.44
aa(lp129
S'2017-03-31'
p130
aF0.639344262295082
aF1.8205128205128205
aa(lp131
S'2016-12-19'
p132
aF0.7094017094017094
aF3.25
aa(lp133
S'2016-11-18'
p134
aF0.8181818181818182
aF5.857142857142857
aa(lp135
S'2016-11-19'
p136
aF1.0
aF3.3684210526315788
aa(lp137
S'2016-11-12'
p138
aF0.5873015873015873
aF1.7045454545454546
aa(lp139
S'2016-11-13'
p140
aF0.5267175572519084
aF1.6136363636363635
aa(lp141
S'2016-11-10'
p142
aF0.42857142857142855
aF2.413793103448276
aa(lp143
S'2016-07-30'
p144
aF0.6949152542372882
aF2.3225806451612905
aa(lp145
S'2016-11-16'
p146
aF0.639344262295082
aF2.121212121212121
aa(lp147
S'2016-11-17'
p148
aF0.5151515151515151
aF3.6956521739130435
aa(lp149
S'2016-11-14'
p150
aF0.7241379310344828
aF1.7
aa(lp151
S'2016-11-15'
p152
aF0.7241379310344828
aF3.25
aa(lp153
S'2017-04-20'
p154
aF0.6666666666666666
aF2.6206896551724137
aa(lp155
S'2016-09-19'
p156
aF0.6949152542372882
aF1.6756756756756757
aa(lp157
S'2016-09-18'
p158
aF0.42857142857142855
aF2.0294117647058822
aa(lp159
S'2016-08-29'
p160
aF0.7241379310344828
aF1.7714285714285714
aa(lp161
S'2016-08-28'
p162
aF0.6666666666666666
aF1.2083333333333333
aa(lp163
S'2016-08-25'
p164
aF1.0408163265306123
aF2.230769230769231
aa(lp165
S'2016-08-24'
p166
aF0.45985401459854014
aF1.5238095238095237
aa(lp167
S'2016-08-27'
p168
aF0.6949152542372882
aF2.1923076923076925
aa(lp169
S'2016-08-26'
p170
aF0.6129032258064516
aF2.303030303030303
aa(lp171
S'2016-08-21'
p172
aF0.4492753623188406
aF1.725
aa(lp173
S'2016-08-20'
p174
aF0.43884892086330934
aF2.0
aa(lp175
S'2016-08-23'
p176
aF0.4925373134328358
aF3.0
aa(lp177
S'2016-08-22'
p178
aF0.5384615384615384
aF2.1
aa(lp179
S'2017-02-01'
p180
aF0.8867924528301887
aF2.6333333333333333
aa(lp181
S'2017-02-02'
p182
aF0.7391304347826086
aF2.357142857142857
aa(lp183
S'2017-02-03'
p184
aF0.5873015873015873
aF2.138888888888889
aa(lp185
S'2017-02-04'
p186
aF0.7094017094017094
aF3.2916666666666665
aa(lp187
S'2017-02-05'
p188
aF0.4925373134328358
aF2.088235294117647
aa(lp189
S'2017-02-06'
p190
aF0.6260162601626016
aF2.892857142857143
aa(lp191
S'2017-02-07'
p192
aF0.6722689075630253
aF2.129032258064516
aa(lp193
S'2017-02-08'
p194
aF0.7699115044247787
aF3.0384615384615383
aa(lp195
S'2017-02-09'
p196
aF0.7241379310344828
aF3.0714285714285716
aa(lp197
S'2016-04-30'
p198
aF0.6129032258064516
aF2.0
aa(lp199
S'2016-10-08'
p200
aF0.5190839694656488
aF2.5
aa(lp201
S'2016-10-09'
p202
aF0.6666666666666666
aF1.3157894736842106
aa(lp203
S'2016-10-06'
p204
aF0.8018018018018018
aF2.0285714285714285
aa(lp205
S'2016-10-07'
p206
aF0.6341463414634146
aF2.75
aa(lp207
S'2016-10-04'
p208
aF0.7543859649122807
aF2.730769230769231
aa(lp209
S'2016-10-05'
p210
aF0.5625
aF2.607142857142857
aa(lp211
S'2016-10-02'
p212
aF0.41843971631205673
aF1.4166666666666667
aa(lp213
S'2016-10-03'
p214
aF0.47058823529411764
aF1.1538461538461537
aa(lp215
S'2016-10-01'
p216
aF0.5151515151515151
aF1.4666666666666666
aa(lp217
S'2016-09-13'
p218
aF0.4492753623188406
aF1.9473684210526316
aa(lp219
S'2016-09-12'
p220
aF0.7857142857142857
aF2.1315789473684212
aa(lp221
S'2016-09-11'
p222
aF0.48148148148148145
aF1.4130434782608696
aa(lp223
S'2016-09-10'
p224
aF0.3157894736842105
aF1.1578947368421053
aa(lp225
S'2016-09-17'
p226
aF0.4084507042253521
aF1.8918918918918919
aa(lp227
S'2016-09-16'
p228
aF0.6260162601626016
aF2.4722222222222223
aa(lp229
S'2016-09-15'
p230
aF0.5503875968992248
aF2.3055555555555554
aa(lp231
S'2016-09-14'
p232
aF0.6949152542372882
aF2.142857142857143
aa(lp233
S'2016-12-13'
p234
aF0.6528925619834711
aF2.2857142857142856
aa(lp235
S'2016-12-12'
p236
aF0.8518518518518519
aF2.962962962962963
aa(lp237
S'2016-12-11'
p238
aF0.7391304347826086
aF2.225806451612903
aa(lp239
S'2016-12-10'
p240
aF0.5384615384615384
aF2.8846153846153846
aa(lp241
S'2016-12-17'
p242
aF0.5267175572519084
aF2.1923076923076925
aa(lp243
S'2016-12-16'
p244
aF0.42857142857142855
aF2.135135135135135
aa(lp245
S'2016-12-15'
p246
aF0.5625
aF2.53125
aa(lp247
S'2016-12-14'
p248
aF0.6
aF3.347826086956522
aa(lp249
S'2017-01-29'
p250
aF0.7391304347826086
aF1.9666666666666666
aa(lp251
S'2017-01-28'
p252
aF0.8181818181818182
aF4.105263157894737
aa(lp253
S'2017-01-27'
p254
aF0.7699115044247787
aF3.0
aa(lp255
S'2017-01-26'
p256
aF0.7391304347826086
aF3.9473684210526314
aa(lp257
S'2017-01-25'
p258
aF0.6129032258064516
aF2.34375
aa(lp259
S'2017-01-24'
p260
aF0.9047619047619048
aF3.28
aa(lp261
S'2017-01-23'
p262
aF0.8018018018018018
aF3.32
aa(lp263
S'2017-01-22'
p264
aF0.6666666666666666
aF2.533333333333333
aa(lp265
S'2017-01-21'
p266
aF0.6949152542372882
aF2.814814814814815
aa(lp267
S'2017-01-20'
p268
aF0.5748031496062992
aF2.8620689655172415
aa(lp269
S'2016-07-02'
p270
aF0.3793103448275862
aF1.8333333333333333
aa(lp271
S'2016-07-03'
p272
aF0.48148148148148145
aF2.0
aa(lp273
S'2016-07-01'
p274
aF0.8867924528301887
aF2.8620689655172415
aa(lp275
S'2016-07-06'
p276
aF0.639344262295082
aF2.142857142857143
aa(lp277
S'2016-07-07'
p278
aF0.6666666666666666
aF2.769230769230769
aa(lp279
S'2016-07-04'
p280
aF0.47058823529411764
aF2.4285714285714284
aa(lp281
S'2016-07-05'
p282
aF0.6583333333333333
aF2.586206896551724
aa(lp283
S'2016-05-01'
p284
aF0.5873015873015873
aF1.7804878048780488
aa(lp285
S'2016-07-08'
p286
aF0.5267175572519084
aF1.434782608695652
aa(lp287
S'2016-07-09'
p288
aF1.0
aF4.0
aa(lp289
S'2016-05-04'
p290
aF0.6528925619834711
aF4.222222222222222
aa(lp291
S'2016-05-05'
p292
aF0.42857142857142855
aF2.625
aa(lp293
S'2016-05-06'
p294
aF0.3986013986013986
aF3.392857142857143
aa(lp295
S'2016-05-07'
p296
aF0.27388535031847133
aF3.909090909090909
aa(lp297
S'2016-06-18'
p298
aF0.42857142857142855
aF1.7435897435897436
aa(lp299
S'2016-06-19'
p300
aF0.5873015873015873
aF2.0
aa(lp301
S'2016-06-16'
p302
aF0.48507462686567165
aF3.0869565217391304
aa(lp303
S'2016-06-17'
p304
aF0.8018018018018018
aF2.3548387096774195
aa(lp305
S'2016-06-14'
p306
aF0.5384615384615384
aF2.3548387096774195
aa(lp307
S'2016-06-15'
p308
aF0.40559440559440557
aF1.972972972972973
aa(lp309
S'2016-06-12'
p310
aF0.3333333333333333
aF1.5813953488372092
aa(lp311
S'2016-06-13'
p312
aF0.6666666666666666
aF3.260869565217391
aa(lp313
S'2016-06-10'
p314
aF0.6
aF2.2941176470588234
aa(lp315
S'2016-06-11'
p316
aF0.4084507042253521
aF1.9473684210526316
aa(lp317
S'2016-05-08'
p318
aF0.3986013986013986
aF1.7435897435897436
aa(lp319
S'2016-05-09'
p320
aF0.7857142857142857
aF1.8709677419354838
aa(lp321
S'2016-05-02'
p322
aF0.639344262295082
aF2.3448275862068964
aa(lp323
S'2016-05-03'
p324
aF0.5748031496062992
aF2.392857142857143
aa(lp325
S'2017-03-23'
p326
aF0.6
aF2.264705882352941
aa(lp327
S'2016-12-18'
p328
aF0.4492753623188406
aF2.71875
aa(lp329
S'2016-09-28'
p330
aF0.639344262295082
aF1.8055555555555556
aa(lp331
S'2016-09-29'
p332
aF0.5625
aF1.5098039215686274
aa(lp333
S'2016-09-22'
p334
aF0.6
aF2.085714285714286
aa(lp335
S'2016-09-23'
p336
aF0.7543859649122807
aF2.642857142857143
aa(lp337
S'2016-09-20'
p338
aF0.5384615384615384
aF2.2903225806451615
aa(lp339
S'2016-09-21'
p340
aF0.6260162601626016
aF3.0
aa(lp341
S'2016-09-26'
p342
aF0.6528925619834711
aF3.125
aa(lp343
S'2016-09-27'
p344
aF0.7241379310344828
aF1.8863636363636365
aa(lp345
S'2016-09-24'
p346
aF0.5625
aF2.189189189189189
aa(lp347
S'2016-09-25'
p348
aF0.35135135135135137
aF1.3333333333333333
aa(lp349
S'2016-12-22'
p350
aF0.6260162601626016
aF2.088235294117647
aa(lp351
S'2016-12-23'
p352
aF0.6
aF1.868421052631579
aa(lp353
S'2016-12-20'
p354
aF0.639344262295082
aF3.2916666666666665
aa(lp355
S'2016-12-21'
p356
aF0.7094017094017094
aF2.0
aa(lp357
S'2016-12-26'
p358
aF0.4925373134328358
aF1.9743589743589745
aa(lp359
S'2016-12-27'
p360
aF0.5503875968992248
aF1.5116279069767442
aa(lp361
S'2016-12-24'
p362
aF0.6666666666666666
aF1.6585365853658536
aa(lp363
S'2016-12-25'
p364
aF0.6528925619834711
aF1.6458333333333333
aa(lp365
S'2016-12-28'
p366
aF0.6129032258064516
aF2.4411764705882355
aa(lp367
S'2016-12-29'
p368
aF0.5267175572519084
aF1.878787878787879
aa(lp369
S'2017-01-16'
p370
aF0.7094017094017094
aF2.875
aa(lp371
S'2017-01-17'
p372
aF0.6666666666666666
aF2.129032258064516
aa(lp373
S'2017-01-14'
p374
aF0.8018018018018018
aF2.2
aa(lp375
S'2017-01-15'
p376
aF0.6528925619834711
aF1.9411764705882353
aa(lp377
S'2017-01-12'
p378
aF0.5873015873015873
aF2.310344827586207
aa(lp379
S'2017-01-13'
p380
aF0.8018018018018018
aF3.5454545454545454
aa(lp381
S'2017-01-10'
p382
aF0.5625
aF1.8409090909090908
aa(lp383
S'2017-01-11'
p384
aF0.35135135135135137
aF0.9821428571428571
aa(lp385
S'2017-01-18'
p386
aF0.6949152542372882
aF3.0384615384615383
aa(lp387
S'2017-01-19'
p388
aF0.6
aF3.9
aa(lp389
S'2017-03-21'
p390
aF0.6
aF3.4782608695652173
aa(lp391
S'2017-03-20'
p392
aF0.5748031496062992
aF2.2857142857142856
aa(lp393
S'2016-07-19'
p394
aF0.5151515151515151
aF3.25
aa(lp395
S'2017-03-22'
p396
aF0.7543859649122807
aF2.176470588235294
aa(lp397
S'2017-03-25'
p398
aF0.48148148148148145
aF1.525
aa(lp399
S'2017-03-24'
p400
aF0.47058823529411764
aF2.1666666666666665
aa(lp401
S'2017-03-27'
p402
aF0.6129032258064516
aF2.2058823529411766
aa(lp403
S'2017-03-26'
p404
aF0.5267175572519084
aF1.9375
aa(lp405
S'2017-03-29'
p406
aF0.7699115044247787
aF2.586206896551724
aa(lp407
S'2017-03-28'
p408
aF0.6949152542372882
aF2.2058823529411766
aa(lp409
S'2016-11-09'
p410
aF0.680672268907563
aF2.6
aa(lp411
S'2016-11-08'
p412
aF0.6666666666666666
aF2.108108108108108
aa(lp413
S'2016-11-01'
p414
aF0.4084507042253521
aF2.0285714285714285
aa(lp415
S'2016-11-03'
p416
aF0.6949152542372882
aF3.09375
aa(lp417
S'2016-11-02'
p418
aF0.5748031496062992
aF5.833333333333333
aa(lp419
S'2016-11-05'
p420
aF0.5037593984962406
aF2.0
aa(lp421
S'2016-11-04'
p422
aF0.5037593984962406
aF2.857142857142857
aa(lp423
S'2016-11-07'
p424
aF0.941747572815534
aF3.36
aa(lp425
S'2016-11-06'
p426
aF0.48148148148148145
aF1.564102564102564
aa(lp427
S'2016-08-10'
p428
aF0.5503875968992248
aF1.7727272727272727
aa(lp429
S'2016-08-11'
p430
aF0.5037593984962406
aF2.484848484848485
aa(lp431
S'2016-08-12'
p432
aF0.41843971631205673
aF2.1142857142857143
aa(lp433
S'2016-08-13'
p434
aF0.639344262295082
aF1.5609756097560976
aa(lp435
S'2016-08-14'
p436
aF0.6
aF1.627906976744186
aa(lp437
S'2016-08-15'
p438
aF0.5151515151515151
aF3.6
aa(lp439
S'2016-08-16'
p440
aF0.5748031496062992
aF2.3529411764705883
aa(lp441
S'2016-08-17'
p442
aF0.7699115044247787
aF2.9166666666666665
aa(lp443
S'2016-08-18'
p444
aF0.5748031496062992
aF1.675
aa(lp445
S'2016-08-19'
p446
aF0.5267175572519084
aF2.026315789473684
aa(lp447
S'2017-02-17'
p448
aF1.127659574468085
aF3.391304347826087
aa(lp449
S'2017-02-16'
p450
aF0.6949152542372882
aF2.96
aa(lp451
S'2017-02-15'
p452
aF0.8348623853211009
aF2.92
aa(lp453
S'2017-02-14'
p454
aF0.5503875968992248
aF2.1025641025641026
aa(lp455
S'2017-02-13'
p456
aF1.0618556701030928
aF2.9565217391304346
aa(lp457
S'2017-02-12'
p458
aF0.6
aF1.9333333333333333
aa(lp459
S'2017-02-11'
p460
aF0.680672268907563
aF3.2
aa(lp461
S'2017-02-10'
p462
aF0.941747572815534
aF3.16
aa(lp463
S'2016-04-21'
p464
aF0.5873015873015873
aF1.75
aa(lp465
S'2016-04-23'
p466
aF0.36054421768707484
aF0.8529411764705882
aa(lp467
S'2016-04-22'
p468
aF0.5873015873015873
aF1.1956521739130435
aa(lp469
S'2016-04-25'
p470
aF0.6
aF1.608695652173913
aa(lp471
S'2016-04-24'
p472
aF0.3333333333333333
aF0.6764705882352942
aa(lp473
S'2017-02-19'
p474
aF0.639344262295082
aF2.206896551724138
aa(lp475
S'2017-02-18'
p476
aF0.6528925619834711
aF1.6222222222222222
aa(lp477
S'2016-10-19'
p478
aF0.8018018018018018
aF1.930232558139535
aa(lp479
S'2016-10-18'
p480
aF0.5384615384615384
aF1.9
aa(lp481
S'2016-10-15'
p482
aF0.4084507042253521
aF1.4130434782608696
aa(lp483
S'2016-10-14'
p484
aF0.5151515151515151
aF2.0
aa(lp485
S'2016-10-17'
p486
aF0.639344262295082
aF2.2941176470588234
aa(lp487
S'2016-10-16'
p488
aF0.5151515151515151
aF1.5813953488372092
aa(lp489
S'2016-10-11'
p490
aF0.5503875968992248
aF3.4347826086956523
aa(lp491
S'2016-10-10'
p492
aF0.6260162601626016
aF2.25
aa(lp493
S'2016-10-13'
p494
aF0.5952380952380952
aF2.5
aa(lp495
S'2016-10-12'
p496
aF0.5503875968992248
aF2.142857142857143
aa(lp497
S'2017-04-15'
p498
aF0.6129032258064516
aF2.264705882352941
aa(lp499
S'2017-04-14'
p500
aF0.6
aF2.433333333333333
aa(lp501
S'2017-04-17'
p502
aF0.48148148148148145
aF2.1842105263157894
aa(lp503
S'2017-04-16'
p504
aF0.45985401459854014
aF1.24
aa(lp505
S'2016-12-01'
p506
aF1.0618556701030928
aF2.6551724137931036
aa(lp507
S'2017-04-13'
p508
aF0.7699115044247787
aF3.2962962962962963
aa(lp509
S'2017-04-12'
p510
aF0.6949152542372882
aF2.138888888888889
aa(lp511
S'2016-07-11'
p512
aF0.7241379310344828
aF4.0
aa(lp513
S'2016-07-10'
p514
aF0.5267175572519084
aF2.5357142857142856
aa(lp515
S'2016-07-13'
p516
aF1.0618556701030928
aF3.75
aa(lp517
S'2016-07-12'
p518
aF0.8018018018018018
aF3.95
aa(lp519
S'2016-07-15'
p520
aF0.7094017094017094
aF2.5483870967741935
aa(lp521
S'2016-07-14'
p522
aF0.5748031496062992
aF4.526315789473684
aa(lp523
S'2016-05-19'
p524
aF0.4492753623188406
aF1.8043478260869565
aa(lp525
S'2016-05-18'
p526
aF0.41843971631205673
aF2.0294117647058822
aa(lp527
S'2016-05-17'
p528
aF0.5748031496062992
aF1.5909090909090908
aa(lp529
S'2016-05-16'
p530
aF0.5503875968992248
aF2.4444444444444446
aa(lp531
S'2016-05-15'
p532
aF0.5037593984962406
aF1.675
aa(lp533
S'2016-05-14'
p534
aF0.5267175572519084
aF2.0
aa(lp535
S'2016-05-13'
p536
aF0.6129032258064516
aF2.161290322580645
aa(lp537
S'2016-05-12'
p538
aF0.7699115044247787
aF2.6666666666666665
aa(lp539
S'2016-05-11'
p540
aF0.5748031496062992
aF2.3513513513513513
aa(lp541
S'2016-12-09'
p542
aF0.6060606060606061
aF3.2857142857142856
aa(lp543
S'2016-06-09'
p544
aF0.5748031496062992
aF2.235294117647059
aa(lp545
S'2016-06-08'
p546
aF0.5748031496062992
aF2.46875
aa(lp547
S'2016-06-05'
p548
aF0.43884892086330934
aF1.625
aa(lp549
S'2016-06-04'
p550
aF0.4925373134328358
aF1.8888888888888888
aa(lp551
S'2016-06-07'
p552
aF0.8181818181818182
aF2.5806451612903225
aa(lp553
S'2016-06-06'
p554
aF0.7543859649122807
aF2.3823529411764706
aa(lp555
S'2016-06-01'
p556
aF0.7391304347826086
aF1.6388888888888888
aa(lp557
S'2016-06-03'
p558
aF0.6129032258064516
aF1.7027027027027026
aa(lp559
S'2016-06-02'
p560
aF0.6528925619834711
aF1.9393939393939394
aa(lp561
S'2017-02-28'
p562
aF0.680672268907563
aF1.8108108108108107
aa(lp563
S'2017-02-26'
p564
aF0.6528925619834711
aF2.0625
aa(lp565
S'2017-02-27'
p566
aF0.6666666666666666
aF2.92
aa(lp567
S'2017-02-24'
p568
aF1.0618556701030928
aF5.117647058823529
aa(lp569
S'2017-02-25'
p570
aF0.680672268907563
aF2.607142857142857
aa(lp571
S'2017-02-22'
p572
aF0.6666666666666666
aF2.5172413793103448
aa(lp573
S'2017-02-23'
p574
aF0.7699115044247787
aF3.4782608695652173
aa(lp575
S'2017-02-20'
p576
aF0.8348623853211009
aF2.8518518518518516
aa(lp577
S'2017-02-21'
p578
aF1.0833333333333333
aF3.347826086956522
aa(lp579
S'2016-04-29'
p580
aF0.8867924528301887
aF1.763157894736842
aa(lp581
S'2016-04-28'
p582
aF0.6528925619834711
aF2.892857142857143
aa(lp583
S'2016-09-30'
p584
aF0.5625
aF2.0
aa(lp585
S'2016-12-31'
p586
aF0.6949152542372882
aF2.111111111111111
aa(lp587
S'2017-04-07'
p588
aF1.0303030303030303
aF3.4444444444444446
aa(lp589
S'2017-04-04'
p590
aF0.941747572815534
aF3.185185185185185
aa(lp591
S'2017-04-05'
p592
aF0.5503875968992248
aF3.56
aa(lp593
S'2017-04-02'
p594
aF0.5873015873015873
aF1.5277777777777777
aa(lp595
S'2017-04-03'
p596
aF0.48148148148148145
aF2.3333333333333335
aa(lp597
S'2017-04-01'
p598
aF0.6
aF4.15
aa(lp599
S'2017-04-08'
p600
aF0.7610619469026548
aF2.310344827586207
aa(lp601
S'2017-04-09'
p602
aF0.7241379310344828
aF2.0833333333333335
aa(lp603
S'2017-01-05'
p604
aF0.6
aF3.111111111111111
aa(lp605
S'2017-01-04'
p606
aF0.8181818181818182
aF1.8055555555555556
aa(lp607
S'2017-01-07'
p608
aF0.7241379310344828
aF2.3333333333333335
aa(lp609
S'2017-01-06'
p610
aF0.7391304347826086
aF3.0416666666666665
aa(lp611
S'2017-01-01'
p612
aF1.0618556701030928
aF2.5357142857142856
aa(lp613
S'2016-04-27'
p614
aF0.36054421768707484
aF1.0754716981132075
aa(lp615
S'2017-01-03'
p616
aF0.6949152542372882
aF2.740740740740741
aa(lp617
S'2017-01-02'
p618
aF0.5037593984962406
aF1.4594594594594594
aa(lp619
S'2016-04-26'
p620
aF0.45985401459854014
aF2.1944444444444446
aa(lp621
S'2017-01-09'
p622
aF0.5748031496062992
aF1.018181818181818
aa(lp623
S'2017-01-08'
p624
aF0.6949152542372882
aF2.393939393939394
aa(lp625
S'2016-05-26'
p626
aF0.5503875968992248
aF1.9666666666666666
aa(lp627
S'2016-05-27'
p628
aF0.4492753623188406
aF1.542857142857143
aa(lp629
S'2016-05-24'
p630
aF0.5037593984962406
aF1.627906976744186
aa(lp631
S'2016-05-25'
p632
aF0.4084507042253521
aF1.5714285714285714
aa(lp633
S'2016-05-22'
p634
aF0.5625
aF2.0588235294117645
aa(lp635
S'2016-05-23'
p636
aF0.5503875968992248
aF1.6136363636363635
aa(lp637
S'2016-05-20'
p638
aF0.4492753623188406
aF1.4146341463414633
aa(lp639
S'2016-05-21'
p640
aF0.5151515151515151
aF1.5681818181818181
aa(lp641
S'2016-07-31'
p642
aF0.42857142857142855
aF3.0357142857142856
aa(lp643
S'2016-05-28'
p644
aF0.5151515151515151
aF1.7317073170731707
aa(lp645
S'2016-05-29'
p646
aF0.4925373134328358
aF1.0566037735849056
aa(lp647
S'2017-03-14'
p648
aF0.6129032258064516
aF4.388888888888889
aa(lp649
S'2017-03-15'
p650
aF0.7391304347826086
aF1.8918918918918919
aa(lp651
S'2017-03-16'
p652
aF0.6666666666666666
aF3.12
aa(lp653
S'2016-11-11'
p654
aF0.680672268907563
aF2.857142857142857
aa(lp655
S'2017-03-10'
p656
aF0.45985401459854014
aF2.310344827586207
aa(lp657
S'2017-03-11'
p658
aF0.4492753623188406
aF2.054054054054054
aa(lp659
S'2017-03-12'
p660
aF0.5873015873015873
aF1.9
aa(lp661
S'2017-03-13'
p662
aF0.8691588785046729
aF3.5714285714285716
aa(lp663
S'2017-03-18'
p664
aF0.5267175572519084
aF2.0
aa(lp665
S'2017-03-19'
p666
aF0.6260162601626016
aF2.2580645161290325
aa(lp667
S'2016-11-30'
p668
aF0.7094017094017094
aF3.3076923076923075
aa(lp669
S'2016-08-07'
p670
aF0.6260162601626016
aF1.7894736842105263
aa(lp671
S'2016-08-06'
p672
aF0.47058823529411764
aF2.088235294117647
aa(lp673
S'2016-08-05'
p674
aF0.6129032258064516
aF2.9642857142857144
aa(lp675
S'2016-08-04'
p676
aF0.639344262295082
aF2.793103448275862
aa(lp677
S'2016-08-03'
p678
aF0.5625
aF1.9259259259259258
aa(lp679
S'2016-08-02'
p680
aF0.6666666666666666
aF1.9428571428571428
aa(lp681
S'2016-08-01'
p682
aF0.6666666666666666
aF3.4583333333333335
aa(lp683
S'2016-11-24'
p684
aF0.5625
aF1.945945945945946
aa(lp685
S'2016-08-09'
p686
aF0.4492753623188406
aF1.8048780487804879
aa(lp687
S'2016-08-08'
p688
aF0.5037593984962406
aF1.6756756756756757
aa(lp689
S'2016-10-20'
p690
aF0.7857142857142857
aF2.84
aa(lp691
S'2016-10-21'
p692
aF0.7699115044247787
aF3.652173913043478
aa(lp693
S'2016-10-22'
p694
aF0.4084507042253521
aF3.44
aa(lp695
S'2016-10-23'
p696
aF0.5748031496062992
aF1.619047619047619
aa(lp697
S'2016-10-24'
p698
aF0.7857142857142857
aF2.7241379310344827
aa(lp699
S'2016-10-25'
p700
aF0.8691588785046729
aF2.4482758620689653
aa(lp701
S'2016-10-26'
p702
aF0.7241379310344828
aF4.206896551724138
aa(lp703
S'2016-10-27'
p704
aF0.7631578947368421
aF3.423076923076923
aa(lp705
S'2016-10-28'
p706
aF0.7699115044247787
aF4.24
aa(lp707
S'2016-10-29'
p708
aF0.6666666666666666
aF3.64
aa(lp709
S'2016-07-24'
p710
aF0.5151515151515151
aF1.6486486486486487
aa(lp711
S'2016-07-25'
p712
aF0.6260162601626016
aF4.222222222222222
aa(lp713
S'2016-07-26'
p714
aF0.5625
aF1.5555555555555556
aa(lp715
S'2016-07-27'
p716
aF0.5873015873015873
aF2.962962962962963
aa(lp717
S'2016-07-20'
p718
aF0.7391304347826086
aF2.4193548387096775
aa(lp719
S'2016-07-21'
p720
aF0.5873015873015873
aF3.111111111111111
aa(lp721
S'2016-07-22'
p722
aF0.7543859649122807
aF2.272727272727273
aa(lp723
S'2016-07-23'
p724
aF0.5625
aF1.8571428571428572
aa(lp725
S'2016-07-28'
p726
aF0.680672268907563
aF3.4615384615384617
aa(lp727
S'2016-07-29'
p728
aF0.6949152542372882
aF2.566666666666667
aa(lp729
S'2016-06-30'
p730
aF0.8348623853211009
aF2.090909090909091
aa.