(dp0
S'2016-08-30'
p1
(lp2
F0.7094017094017094
aF2.35
asS'2016-08-31'
p3
(lp4
F0.7543859649122807
aF2.3055555555555554
asS'2016-09-08'
p5
(lp6
F0.7543859649122807
aF1.7446808510638299
asS'2016-09-09'
p7
(lp8
F0.8867924528301887
aF2.4444444444444446
asS'2016-09-04'
p9
(lp10
F0.8018018018018018
aF2.625
asS'2016-09-05'
p11
(lp12
F1.1505376344086022
aF3.2857142857142856
asS'2016-09-06'
p13
(lp14
F0.6949152542372882
aF1.4509803921568627
asS'2016-09-07'
p15
(lp16
F0.680672268907563
aF1.8604651162790697
asS'2016-09-01'
p17
(lp18
F0.41843971631205673
aF1.7272727272727273
asS'2016-09-02'
p19
(lp20
F0.6666666666666666
aF1.5416666666666667
asS'2016-09-03'
p21
(lp22
F1.105263157894737
aF3.4814814814814814
asS'2017-04-15'
p23
(lp24
F0.48148148148148145
aF1.3829787234042554
asS'2016-12-05'
p25
(lp26
F0.5037593984962406
aF2.4285714285714284
asS'2017-04-17'
p27
(lp28
F0.3698630136986301
aF1.4042553191489362
asS'2016-12-07'
p29
(lp30
F0.639344262295082
aF2.6875
asS'2017-04-11'
p31
(lp32
F0.42105263157894735
aF1.1071428571428572
asS'2017-04-10'
p33
(lp34
F0.3698630136986301
aF1.0
asS'2016-12-02'
p35
(lp36
F0.9607843137254902
aF2.638888888888889
asS'2017-04-12'
p37
(lp38
F0.3586206896551724
aF2.71875
asS'2017-01-30'
p39
(lp40
F0.9607843137254902
aF2.8
asS'2017-01-31'
p41
(lp42
F0.7241379310344828
aF1.9
asS'2017-04-19'
p43
(lp44
F0.5748031496062992
aF1.6842105263157894
asS'2017-04-18'
p45
(lp46
F0.36054421768707484
aF1.6153846153846154
asS'2017-03-09'
p47
(lp48
F0.5037593984962406
aF2.4411764705882355
asS'2017-03-08'
p49
(lp50
F0.7699115044247787
aF1.7659574468085106
asS'2016-05-31'
p51
(lp52
F0.4492753623188406
aF1.34
asS'2016-05-30'
p53
(lp54
F0.5873015873015873
aF1.537037037037037
asS'2017-03-03'
p55
(lp56
F0.680672268907563
aF2.6206896551724137
asS'2017-03-02'
p57
(lp58
F0.6129032258064516
aF1.4807692307692308
asS'2017-03-01'
p59
(lp60
F0.7699115044247787
aF2.5277777777777777
asS'2017-03-07'
p61
(lp62
F0.680672268907563
aF1.8421052631578947
asS'2017-03-06'
p63
(lp64
F0.6
aF1.7619047619047619
asS'2017-03-05'
p65
(lp66
F0.7699115044247787
aF2.823529411764706
asS'2017-03-04'
p67
(lp68
F0.47058823529411764
aF1.911764705882353
asS'2016-07-17'
p69
(lp70
F0.6
aF2.1142857142857143
asS'2016-07-16'
p71
(lp72
F0.6666666666666666
aF1.2352941176470589
asS'2016-11-23'
p73
(lp74
F0.7391304347826086
aF2.5757575757575757
asS'2016-11-22'
p75
(lp76
F0.7857142857142857
aF2.1025641025641026
asS'2016-11-21'
p77
(lp78
F0.8181818181818182
aF2.15
asS'2016-11-20'
p79
(lp80
F0.5037593984962406
aF1.6382978723404256
asS'2016-11-27'
p81
(lp82
F0.8348623853211009
aF1.9743589743589745
asS'2016-11-26'
p83
(lp84
F0.47058823529411764
aF1.4528301886792452
asS'2016-11-25'
p85
(lp86
F0.7241379310344828
aF2.235294117647059
asS'2016-05-16'
p87
(lp88
F0.48148148148148145
aF1.3846153846153846
asS'2016-11-29'
p89
(lp90
F0.680672268907563
aF1.4444444444444444
asS'2016-11-28'
p91
(lp92
F0.7391304347826086
aF1.8717948717948718
asS'2017-03-17'
p93
(lp94
F0.5267175572519084
aF1.574468085106383
asS'2016-07-19'
p95
(lp96
F0.6260162601626016
aF1.7346938775510203
asS'2016-10-31'
p97
(lp98
F0.6
aF2.303030303030303
asS'2016-10-30'
p99
(lp100
F0.3698630136986301
aF1.6875
asS'2016-12-09'
p101
(lp102
F0.6949152542372882
aF2.5
asS'2016-06-27'
p103
(lp104
F0.7543859649122807
aF1.9545454545454546
asS'2016-06-26'
p105
(lp106
F0.48148148148148145
aF1.565217391304348
asS'2016-06-25'
p107
(lp108
F0.5267175572519084
aF1.3962264150943395
asS'2016-06-24'
p109
(lp110
F0.48148148148148145
aF1.3636363636363635
asS'2016-06-23'
p111
(lp112
F0.5625
aF1.2586206896551724
asS'2016-06-22'
p113
(lp114
F0.5384615384615384
aF1.5365853658536586
asS'2016-06-21'
p115
(lp116
F0.41843971631205673
aF1.488888888888889
asS'2016-06-20'
p117
(lp118
F0.5384615384615384
aF1.75
asS'2016-06-29'
p119
(lp120
F0.4925373134328358
aF1.462962962962963
asS'2016-06-28'
p121
(lp122
F0.2903225806451613
aF1.1833333333333333
asS'2017-03-30'
p123
(lp124
F0.41843971631205673
aF1.5918367346938775
asS'2017-03-31'
p125
(lp126
F0.6446280991735537
aF1.975
asS'2016-12-19'
p127
(lp128
F0.3422818791946309
aF1.1764705882352942
asS'2016-11-18'
p129
(lp130
F0.6666666666666666
aF1.5333333333333334
asS'2016-11-19'
p131
(lp132
F0.8018018018018018
aF2.1463414634146343
asS'2016-11-12'
p133
(lp134
F0.639344262295082
aF2.0952380952380953
asS'2016-11-13'
p135
(lp136
F0.5625
aF1.5576923076923077
asS'2016-11-10'
p137
(lp138
F0.7241379310344828
aF1.9736842105263157
asS'2016-07-30'
p139
(lp140
F0.43884892086330934
aF1.5319148936170213
asS'2016-11-16'
p141
(lp142
F0.7094017094017094
aF1.8372093023255813
asS'2016-11-17'
p143
(lp144
F0.7543859649122807
aF2.5277777777777777
asS'2016-11-14'
p145
(lp146
F0.7543859649122807
aF1.8888888888888888
asS'2016-11-15'
p147
(lp148
F0.680672268907563
aF2.1707317073170733
asS'2017-04-20'
p149
(lp150
F0.3793103448275862
aF2.1818181818181817
asS'2016-12-11'
p151
(lp152
F0.6129032258064516
aF1.7333333333333334
asS'2016-09-18'
p153
(lp154
F0.5267175572519084
aF2.342857142857143
asS'2016-03-22'
p155
(lp156
F1.0
aF0.0
asS'2016-08-29'
p157
(lp158
F0.3986013986013986
aF1.380952380952381
asS'2016-08-28'
p159
(lp160
F0.47058823529411764
aF1.5909090909090908
asS'2016-08-25'
p161
(lp162
F0.5748031496062992
aF1.75
asS'2016-08-24'
p163
(lp164
F0.8518518518518519
aF2.25
asS'2016-08-27'
p165
(lp166
F0.9801980198019802
aF3.4285714285714284
asS'2016-08-26'
p167
(lp168
F0.6666666666666666
aF2.1315789473684212
asS'2016-08-21'
p169
(lp170
F0.6129032258064516
aF2.257142857142857
asS'2016-08-20'
p171
(lp172
F0.6
aF1.6595744680851063
asS'2016-08-23'
p173
(lp174
F0.6949152542372882
aF2.8181818181818183
asS'2016-08-22'
p175
(lp176
F0.6
aF1.6595744680851063
asS'2017-02-01'
p177
(lp178
F0.6666666666666666
aF2.236842105263158
asS'2017-02-02'
p179
(lp180
F0.680672268907563
aF2.0
asS'2017-02-03'
p181
(lp182
F0.7857142857142857
aF1.9
asS'2017-02-04'
p183
(lp184
F0.8867924528301887
aF2.6363636363636362
asS'2017-02-05'
p185
(lp186
F0.7094017094017094
aF2.8181818181818183
asS'2017-02-06'
p187
(lp188
F0.5873015873015873
aF3.259259259259259
asS'2017-02-07'
p189
(lp190
F0.6528925619834711
aF2.2222222222222223
asS'2017-02-08'
p191
(lp192
F0.47058823529411764
aF2.59375
asS'2017-02-09'
p193
(lp194
F0.7094017094017094
aF2.210526315789474
asS'2016-04-30'
p195
(lp196
F0.5503875968992248
aF1.7346938775510203
asS'2016-10-08'
p197
(lp198
F0.7391304347826086
aF3.225806451612903
asS'2016-10-09'
p199
(lp200
F0.5384615384615384
aF2.2857142857142856
asS'2016-10-06'
p201
(lp202
F0.7857142857142857
aF2.324324324324324
asS'2016-10-07'
p203
(lp204
F0.639344262295082
aF1.7857142857142858
asS'2016-10-04'
p205
(lp206
F0.45985401459854014
aF1.813953488372093
asS'2016-10-05'
p207
(lp208
F1.105263157894737
aF1.8478260869565217
asS'2016-10-02'
p209
(lp210
F0.42857142857142855
aF1.48
asS'2016-10-03'
p211
(lp212
F0.6949152542372882
aF2.108108108108108
asS'2016-10-01'
p213
(lp214
F0.5503875968992248
aF1.875
asS'2016-09-13'
p215
(lp216
F0.6260162601626016
aF2.358974358974359
asS'2016-09-12'
p217
(lp218
F0.4084507042253521
aF1.9318181818181819
asS'2016-09-11'
p219
(lp220
F0.6260162601626016
aF1.837837837837838
asS'2016-09-10'
p221
(lp222
F0.7857142857142857
aF2.6052631578947367
asS'2016-09-17'
p223
(lp224
F0.6129032258064516
aF0.890625
asS'2016-09-16'
p225
(lp226
F0.680672268907563
aF2.3333333333333335
asS'2016-09-15'
p227
(lp228
F0.8867924528301887
aF2.4210526315789473
asS'2016-09-14'
p229
(lp230
F0.45985401459854014
aF1.5490196078431373
asS'2016-12-13'
p231
(lp232
F0.9607843137254902
aF1.9534883720930232
asS'2016-12-12'
p233
(lp234
F0.5037593984962406
aF2.8214285714285716
asS'2016-09-19'
p235
(lp236
F1.0
aF2.4705882352941178
asS'2016-12-10'
p237
(lp238
F0.48148148148148145
aF1.8421052631578947
asS'2016-12-17'
p239
(lp240
F0.3157894736842105
aF1.2830188679245282
asS'2016-12-16'
p241
(lp242
F0.5037593984962406
aF1.4642857142857142
asS'2016-12-15'
p243
(lp244
F0.6129032258064516
aF1.6222222222222222
asS'2016-12-14'
p245
(lp246
F0.639344262295082
aF2.2941176470588234
asS'2017-01-29'
p247
(lp248
F0.8867924528301887
aF3.6666666666666665
asS'2017-01-28'
p249
(lp250
F0.6949152542372882
aF3.225806451612903
asS'2017-01-27'
p251
(lp252
F0.6666666666666666
aF2.051282051282051
asS'2017-01-26'
p253
(lp254
F0.9801980198019802
aF2.806451612903226
asS'2017-01-25'
p255
(lp256
F1.0833333333333333
aF2.8
asS'2017-01-24'
p257
(lp258
F0.6949152542372882
aF1.5957446808510638
asS'2017-01-23'
p259
(lp260
F0.680672268907563
aF2.1842105263157894
asS'2017-01-22'
p261
(lp262
F0.5384615384615384
aF2.0
asS'2017-01-21'
p263
(lp264
F0.7699115044247787
aF2.2972972972972974
asS'2017-01-20'
p265
(lp266
F0.5384615384615384
aF2.048780487804878
asS'2016-07-02'
p267
(lp268
F0.41843971631205673
aF1.0806451612903225
asS'2016-07-03'
p269
(lp270
F0.6260162601626016
aF2.225
asS'2016-07-01'
p271
(lp272
F0.47058823529411764
aF1.5636363636363637
asS'2016-07-06'
p273
(lp274
F0.7241379310344828
aF2.0930232558139537
asS'2016-07-07'
p275
(lp276
F0.7391304347826086
aF2.0789473684210527
asS'2016-07-04'
p277
(lp278
F0.7543859649122807
aF2.125
asS'2016-07-05'
p279
(lp280
F0.5267175572519084
aF2.1794871794871793
asS'2016-05-01'
p281
(lp282
F0.3333333333333333
aF1.4807692307692308
asS'2016-07-08'
p283
(lp284
F0.5267175572519084
aF1.565217391304348
asS'2016-07-09'
p285
(lp286
F0.8348623853211009
aF3.25
asS'2016-05-04'
p287
(lp288
F0.5151515151515151
aF1.6136363636363635
asS'2016-05-05'
p289
(lp290
F0.7699115044247787
aF1.3333333333333333
asS'2016-05-06'
p291
(lp292
F0.6260162601626016
aF1.5
asS'2016-05-07'
p293
(lp294
F0.6666666666666666
aF1.5625
asS'2016-06-18'
p295
(lp296
F0.5873015873015873
aF1.9523809523809523
asS'2016-06-19'
p297
(lp298
F0.3793103448275862
aF0.8611111111111112
asS'2016-06-16'
p299
(lp300
F0.4925373134328358
aF1.3404255319148937
asS'2016-06-17'
p301
(lp302
F0.5625
aF1.290909090909091
asS'2016-06-14'
p303
(lp304
F0.5037593984962406
aF2.1463414634146343
asS'2016-06-15'
p305
(lp306
F0.41843971631205673
aF1.2222222222222223
asS'2016-06-12'
p307
(lp308
F0.3986013986013986
aF1.7857142857142858
asS'2016-06-13'
p309
(lp310
F0.3422818791946309
aF1.5490196078431373
asS'2016-06-10'
p311
(lp312
F0.4925373134328358
aF2.0
asS'2016-06-11'
p313
(lp314
F0.680672268907563
aF2.0
asS'2016-05-08'
p315
(lp316
F0.5873015873015873
aF1.5384615384615385
asS'2016-05-09'
p317
(lp318
F0.5748031496062992
aF1.6734693877551021
asS'2016-05-02'
p319
(lp320
F0.4084507042253521
aF1.375
asS'2016-05-03'
p321
(lp322
F0.6949152542372882
aF2.3658536585365852
asS'2016-12-18'
p323
(lp324
F0.30718954248366015
aF0.9298245614035088
asS'2016-09-28'
p325
(lp326
F0.6
aF2.657142857142857
asS'2016-09-29'
p327
(lp328
F0.4084507042253521
aF1.3272727272727274
asS'2016-09-22'
p329
(lp330
F0.9230769230769231
aF3.0344827586206895
asS'2016-09-23'
p331
(lp332
F0.680672268907563
aF2.3846153846153846
asS'2016-09-20'
p333
(lp334
F0.9607843137254902
aF4.16
asS'2016-09-21'
p335
(lp336
F0.45985401459854014
aF2.257142857142857
asS'2016-09-26'
p337
(lp338
F0.6666666666666666
aF2.4285714285714284
asS'2016-09-27'
p339
(lp340
F0.8181818181818182
aF4.916666666666667
asS'2016-09-24'
p341
(lp342
F1.105263157894737
aF3.6
asS'2016-09-25'
p343
(lp344
F0.7241379310344828
aF2.967741935483871
asS'2016-12-22'
p345
(lp346
F0.5625
aF1.2830188679245282
asS'2016-12-23'
p347
(lp348
F0.47058823529411764
aF1.6
asS'2016-12-20'
p349
(lp350
F0.5
aF1.9024390243902438
asS'2016-12-21'
p351
(lp352
F0.7391304347826086
aF2.966666666666667
asS'2016-12-26'
p353
(lp354
F0.5625
aF2.5405405405405403
asS'2016-12-27'
p355
(lp356
F0.36054421768707484
aF1.3076923076923077
asS'2016-12-24'
p357
(lp358
F0.48148148148148145
aF1.9772727272727273
asS'2016-12-25'
p359
(lp360
F0.6949152542372882
aF2.2162162162162162
asS'2016-12-28'
p361
(lp362
F0.5669291338582677
aF2.075
asS'2016-12-29'
p363
(lp364
F0.7857142857142857
aF2.1794871794871793
asS'2017-01-16'
p365
(lp366
F0.6666666666666666
aF1.8837209302325582
asS'2017-01-17'
p367
(lp368
F0.8518518518518519
aF2.088235294117647
asS'2017-01-14'
p369
(lp370
F0.7857142857142857
aF2.5135135135135136
asS'2017-01-15'
p371
(lp372
F0.941747572815534
aF2.9615384615384617
asS'2017-01-12'
p373
(lp374
F0.5625
aF2.4285714285714284
asS'2017-01-13'
p375
(lp376
F0.639344262295082
aF2.7
asS'2017-01-10'
p377
(lp378
F0.7857142857142857
aF2.966666666666667
asS'2017-01-11'
p379
(lp380
F0.6260162601626016
aF2.7241379310344827
asS'2017-01-18'
p381
(lp382
F0.6129032258064516
aF2.236842105263158
asS'2017-01-19'
p383
(lp384
F0.6666666666666666
aF3.066666666666667
asS'2017-03-21'
p385
(lp386
F0.45985401459854014
aF1.4074074074074074
asS'2017-03-20'
p387
(lp388
F0.6528925619834711
aF2.054054054054054
asS'2017-03-23'
p389
(lp390
F0.5748031496062992
aF2.6206896551724137
asS'2017-03-22'
p391
(lp392
F0.6260162601626016
aF2.325
asS'2017-03-25'
p393
(lp394
F0.8518518518518519
aF3.625
asS'2017-03-24'
p395
(lp396
F0.7094017094017094
aF2.6774193548387095
asS'2017-03-27'
p397
(lp398
F0.3157894736842105
aF1.8444444444444446
asS'2017-03-26'
p399
(lp400
F0.32894736842105265
aF1.9111111111111112
asS'2017-03-29'
p401
(lp402
F0.6260162601626016
aF1.875
asS'2017-03-28'
p403
(lp404
F0.4632352941176471
aF2.2972972972972974
asS'2016-11-09'
p405
(lp406
F0.8691588785046729
aF2.838709677419355
asS'2016-11-08'
p407
(lp408
F1.105263157894737
aF2.9285714285714284
asS'2016-11-01'
p409
(lp410
F0.7543859649122807
aF3.3333333333333335
asS'2016-11-03'
p411
(lp412
F0.6528925619834711
aF2.189189189189189
asS'2016-11-02'
p413
(lp414
F0.8518518518518519
aF4.173913043478261
asS'2016-11-05'
p415
(lp416
F0.8518518518518519
aF3.4827586206896552
asS'2016-11-04'
p417
(lp418
F0.6949152542372882
aF1.925
asS'2016-11-07'
p419
(lp420
F0.6666666666666666
aF2.0217391304347827
asS'2016-11-06'
p421
(lp422
F0.7543859649122807
aF3.7037037037037037
asS'2016-07-18'
p423
(lp424
F0.6260162601626016
aF1.2777777777777777
asS'2016-08-10'
p425
(lp426
F0.5037593984962406
aF2.317073170731707
asS'2016-08-11'
p427
(lp428
F0.4492753623188406
aF1.6938775510204083
asS'2016-08-12'
p429
(lp430
F0.5748031496062992
aF1.5918367346938775
asS'2016-08-13'
p431
(lp432
F0.5748031496062992
aF1.7659574468085106
asS'2016-08-14'
p433
(lp434
F0.42857142857142855
aF1.4230769230769231
asS'2016-08-15'
p435
(lp436
F0.4925373134328358
aF1.2553191489361701
asS'2016-08-16'
p437
(lp438
F0.5625
aF1.3888888888888888
asS'2016-08-17'
p439
(lp440
F0.5037593984962406
aF2.1578947368421053
asS'2016-08-18'
p441
(lp442
F0.5503875968992248
aF2.1
asS'2016-08-19'
p443
(lp444
F0.5625
aF1.7446808510638299
asS'2016-04-29'
p445
(lp446
F0.4492753623188406
aF1.309090909090909
asS'2017-02-16'
p447
(lp448
F0.6611570247933884
aF1.816326530612245
asS'2017-02-15'
p449
(lp450
F0.639344262295082
aF1.8863636363636365
asS'2017-02-14'
p451
(lp452
F0.5748031496062992
aF2.081081081081081
asS'2017-02-13'
p453
(lp454
F0.5151515151515151
aF1.5348837209302326
asS'2017-02-12'
p455
(lp456
F0.6949152542372882
aF1.8444444444444446
asS'2017-02-11'
p457
(lp458
F0.7857142857142857
aF2.967741935483871
asS'2017-02-10'
p459
(lp460
F0.7857142857142857
aF2.4545454545454546
asS'2016-04-21'
p461
(lp462
F0.680672268907563
aF1.9545454545454546
asS'2016-04-23'
p463
(lp464
F0.7699115044247787
aF2.289473684210526
asS'2016-04-22'
p465
(lp466
F0.8256880733944955
aF4.2
asS'2016-04-25'
p467
(lp468
F1.0408163265306123
aF2.3333333333333335
asS'2016-04-24'
p469
(lp470
F0.5503875968992248
aF1.9047619047619047
asS'2016-04-27'
p471
(lp472
F0.7543859649122807
aF2.5
asS'2017-02-18'
p473
(lp474
F0.6129032258064516
aF1.3
asS'2016-10-19'
p475
(lp476
F0.9047619047619048
aF3.096774193548387
asS'2016-10-18'
p477
(lp478
F0.9047619047619048
aF2.2857142857142856
asS'2016-10-15'
p479
(lp480
F0.6666666666666666
aF2.764705882352941
asS'2016-10-14'
p481
(lp482
F0.42857142857142855
aF1.375
asS'2016-10-17'
p483
(lp484
F0.7241379310344828
aF2.066666666666667
asS'2016-10-16'
p485
(lp486
F0.47058823529411764
aF1.32
asS'2016-10-11'
p487
(lp488
F0.7857142857142857
aF2.4444444444444446
asS'2016-10-10'
p489
(lp490
F0.7391304347826086
aF2.0232558139534884
asS'2016-10-13'
p491
(lp492
F0.5873015873015873
aF1.9285714285714286
asS'2016-10-12'
p493
(lp494
F0.5267175572519084
aF2.2
asS'2016-12-04'
p495
(lp496
F0.5151515151515151
aF2.342857142857143
asS'2017-04-14'
p497
(lp498
F0.5748031496062992
aF2.0588235294117645
asS'2016-12-06'
p499
(lp500
F0.47058823529411764
aF1.5833333333333333
asS'2017-04-16'
p501
(lp502
F0.3422818791946309
aF1.6956521739130435
asS'2016-12-01'
p503
(lp504
F0.8518518518518519
aF3.75
asS'2017-04-13'
p505
(lp506
F0.42857142857142855
aF1.8823529411764706
asS'2016-12-03'
p507
(lp508
F0.7391304347826086
aF3.121212121212121
asS'2016-07-11'
p509
(lp510
F0.45985401459854014
aF1.813953488372093
asS'2016-07-10'
p511
(lp512
F0.7241379310344828
aF2.2777777777777777
asS'2016-07-13'
p513
(lp514
F0.5037593984962406
aF2.1136363636363638
asS'2016-07-12'
p515
(lp516
F0.6260162601626016
aF1.8604651162790697
asS'2016-07-15'
p517
(lp518
F0.7857142857142857
aF3.3870967741935485
asS'2016-07-14'
p519
(lp520
F0.6260162601626016
aF1.775
asS'2016-05-19'
p521
(lp522
F1.02020202020202
aF3.9583333333333335
asS'2016-05-18'
p523
(lp524
F0.7391304347826086
aF2.870967741935484
asS'2016-05-17'
p525
(lp526
F0.8018018018018018
aF2.41025641025641
asS'2016-12-08'
p527
(lp528
F0.5384615384615384
aF2.3513513513513513
asS'2016-05-15'
p529
(lp530
F0.43884892086330934
aF1.4081632653061225
asS'2016-05-14'
p531
(lp532
F0.3888888888888889
aF1.851063829787234
asS'2016-05-13'
p533
(lp534
F0.3986013986013986
aF1.5625
asS'2016-05-12'
p535
(lp536
F0.5384615384615384
aF2.097560975609756
asS'2016-05-11'
p537
(lp538
F0.5267175572519084
aF1.9047619047619047
asS'2016-05-10'
p539
(lp540
F0.8018018018018018
aF2.757575757575758
asS'2016-06-09'
p541
(lp542
F0.5625
aF1.4090909090909092
asS'2016-06-08'
p543
(lp544
F0.7094017094017094
aF2.6944444444444446
asS'2016-06-05'
p545
(lp546
F0.3986013986013986
aF1.4901960784313726
asS'2016-06-04'
p547
(lp548
F0.7391304347826086
aF2.4594594594594597
asS'2016-06-07'
p549
(lp550
F0.5748031496062992
aF1.565217391304348
asS'2016-06-06'
p551
(lp552
F0.6666666666666666
aF1.6046511627906976
asS'2016-06-01'
p553
(lp554
F0.7094017094017094
aF4.04
asS'2016-06-03'
p555
(lp556
F0.6
aF1.4509803921568627
asS'2016-06-02'
p557
(lp558
F0.48148148148148145
aF2.3658536585365852
asS'2017-02-28'
p559
(lp560
F0.9801980198019802
aF2.324324324324324
asS'2017-02-26'
p561
(lp562
F0.639344262295082
aF2.1219512195121952
asS'2017-02-27'
p563
(lp564
F0.8867924528301887
aF2.4
asS'2017-02-24'
p565
(lp566
F0.941747572815534
aF2.4324324324324325
asS'2017-02-25'
p567
(lp568
F0.8018018018018018
aF1.8333333333333333
asS'2017-02-22'
p569
(lp570
F0.8018018018018018
aF2.6176470588235294
asS'2017-02-23'
p571
(lp572
F0.9047619047619048
aF2.235294117647059
asS'2017-02-20'
p573
(lp574
F0.7241379310344828
aF2.3076923076923075
asS'2017-02-21'
p575
(lp576
F0.8018018018018018
aF2.7941176470588234
asS'2017-02-17'
p577
(lp578
F0.5546875
aF1.4666666666666666
asS'2016-04-28'
p579
(lp580
F0.7543859649122807
aF1.975609756097561
asS'2016-07-25'
p581
(lp582
F0.3793103448275862
aF1.5454545454545454
asS'2016-09-30'
p583
(lp584
F0.7391304347826086
aF1.4901960784313726
asS'2016-12-31'
p585
(lp586
F0.9230769230769231
aF3.3793103448275863
asS'2016-12-30'
p587
(lp588
F0.7699115044247787
aF2.6944444444444446
asS'2017-04-04'
p589
(lp590
F0.48148148148148145
aF1.5333333333333334
asS'2017-04-05'
p591
(lp592
F0.5384615384615384
aF2.3783783783783785
asS'2017-04-02'
p593
(lp594
F0.4492753623188406
aF1.6521739130434783
asS'2017-04-03'
p595
(lp596
F0.4492753623188406
aF1.320754716981132
asS'2017-04-01'
p597
(lp598
F0.6129032258064516
aF1.8125
asS'2016-07-23'
p599
(lp600
F0.5037593984962406
aF1.972972972972973
asS'2017-04-08'
p601
(lp602
F0.42142857142857143
aF1.6304347826086956
asS'2017-04-09'
p603
(lp604
F0.5434782608695652
aF2.4390243902439024
asS'2017-01-05'
p605
(lp606
F0.5503875968992248
aF1.8636363636363635
asS'2017-01-04'
p607
(lp608
F0.6949152542372882
aF2.358974358974359
asS'2017-01-07'
p609
(lp610
F0.5503875968992248
aF2.4857142857142858
asS'2017-01-06'
p611
(lp612
F0.6129032258064516
aF1.5333333333333334
asS'2017-01-01'
p613
(lp614
F0.8867924528301887
aF3.0344827586206895
asS'2017-02-19'
p615
(lp616
F0.7241379310344828
aF3.032258064516129
asS'2017-01-03'
p617
(lp618
F0.7241379310344828
aF1.553191489361702
asS'2017-01-02'
p619
(lp620
F0.5267175572519084
aF1.7045454545454546
asS'2016-04-26'
p621
(lp622
F0.5151515151515151
aF2.5555555555555554
asS'2017-01-09'
p623
(lp624
F0.45985401459854014
aF1.3018867924528301
asS'2017-01-08'
p625
(lp626
F0.3793103448275862
aF2.2162162162162162
asS'2016-05-26'
p627
(lp628
F0.47058823529411764
aF1.3269230769230769
asS'2016-05-27'
p629
(lp630
F0.35135135135135137
aF1.6818181818181819
asS'2016-05-24'
p631
(lp632
F0.6
aF1.6274509803921569
asS'2016-05-25'
p633
(lp634
F0.5151515151515151
aF1.6341463414634145
asS'2016-05-22'
p635
(lp636
F0.6
aF1.9333333333333333
asS'2016-05-23'
p637
(lp638
F0.43884892086330934
aF2.024390243902439
asS'2016-05-20'
p639
(lp640
F0.5503875968992248
aF1.7446808510638299
asS'2016-05-21'
p641
(lp642
F0.5625
aF1.7708333333333333
asS'2016-07-31'
p643
(lp644
F0.4084507042253521
aF1.46
asS'2016-05-28'
p645
(lp646
F0.4084507042253521
aF1.3
asS'2016-05-29'
p647
(lp648
F0.6129032258064516
aF2.425
asS'2017-03-14'
p649
(lp650
F0.6949152542372882
aF2.6551724137931036
asS'2017-03-15'
p651
(lp652
F0.5503875968992248
aF2.2051282051282053
asS'2017-03-16'
p653
(lp654
F0.5384615384615384
aF2.1794871794871793
asS'2016-11-11'
p655
(lp656
F0.7857142857142857
aF2.8666666666666667
asS'2017-03-10'
p657
(lp658
F0.6260162601626016
aF2.4857142857142858
asS'2017-03-11'
p659
(lp660
F0.5873015873015873
aF2.8666666666666667
asS'2017-03-12'
p661
(lp662
F0.6129032258064516
aF2.324324324324324
asS'2017-03-13'
p663
(lp664
F0.5873015873015873
aF1.5681818181818181
asS'2017-03-18'
p665
(lp666
F0.7857142857142857
aF2.588235294117647
asS'2017-03-19'
p667
(lp668
F0.42857142857142855
aF1.411764705882353
asS'2016-11-30'
p669
(lp670
F0.6129032258064516
aF1.8444444444444446
asS'2016-08-07'
p671
(lp672
F0.6
aF1.309090909090909
asS'2016-08-06'
p673
(lp674
F0.6666666666666666
aF2.2162162162162162
asS'2016-08-05'
p675
(lp676
F0.7241379310344828
aF2.076923076923077
asS'2016-08-04'
p677
(lp678
F0.5151515151515151
aF2.048780487804878
asS'2016-08-03'
p679
(lp680
F0.5625
aF2.27027027027027
asS'2016-08-02'
p681
(lp682
F0.6528925619834711
aF2.696969696969697
asS'2016-08-01'
p683
(lp684
F0.5503875968992248
aF1.744186046511628
asS'2016-11-24'
p685
(lp686
F1.0
aF2.5555555555555554
asS'2016-08-09'
p687
(lp688
F0.8181818181818182
aF2.4
asS'2016-08-08'
p689
(lp690
F0.6
aF1.8666666666666667
asS'2016-10-20'
p691
(lp692
F0.7543859649122807
aF3.2903225806451615
asS'2016-10-21'
p693
(lp694
F0.5503875968992248
aF2.6857142857142855
asS'2016-10-22'
p695
(lp696
F0.5267175572519084
aF1.7608695652173914
asS'2016-10-23'
p697
(lp698
F0.5267175572519084
aF1.9555555555555555
asS'2016-10-24'
p699
(lp700
F0.5151515151515151
aF1.3125
asS'2016-10-25'
p701
(lp702
F0.6949152542372882
aF2.4594594594594597
asS'2016-10-26'
p703
(lp704
F0.4492753623188406
aF1.5416666666666667
asS'2016-10-27'
p705
(lp706
F0.42857142857142855
aF2.735294117647059
asS'2016-10-28'
p707
(lp708
F0.45985401459854014
aF2.024390243902439
asS'2016-10-29'
p709
(lp710
F0.6
aF1.7916666666666667
asS'2016-07-24'
p711
(lp712
F0.5503875968992248
aF2.0256410256410255
asS'2017-04-06'
p713
(lp714
F0.3698630136986301
aF1.4107142857142858
asS'2016-07-26'
p715
(lp716
F0.5873015873015873
aF1.8048780487804879
asS'2016-07-27'
p717
(lp718
F0.5503875968992248
aF1.6875
asS'2016-07-20'
p719
(lp720
F0.680672268907563
aF1.9318181818181819
asS'2016-07-21'
p721
(lp722
F0.5151515151515151
aF1.4565217391304348
asS'2016-07-22'
p723
(lp724
F0.6528925619834711
aF2.2222222222222223
asS'2017-04-07'
p725
(lp726
F0.6290322580645161
aF1.1923076923076923
asS'2016-07-28'
p727
(lp728
F0.4084507042253521
aF1.28
asS'2016-07-29'
p729
(lp730
F0.5037593984962406
aF1.85
asS'2016-06-30'
p731
(lp732
F0.5873015873015873
aF1.829268292682927
as.