(lp0
(lp1
S'2016-08-30'
p2
aF0.7094017094017094
aF2.35
aa(lp3
S'2016-08-31'
p4
aF0.7543859649122807
aF2.3055555555555554
aa(lp5
S'2017-04-19'
p6
aF0.5748031496062992
aF1.6842105263157894
aa(lp7
S'2016-09-08'
p8
aF0.7543859649122807
aF1.7446808510638299
aa(lp9
S'2016-09-09'
p10
aF0.8867924528301887
aF2.4444444444444446
aa(lp11
S'2016-09-04'
p12
aF0.8018018018018018
aF2.625
aa(lp13
S'2016-09-05'
p14
aF1.1505376344086022
aF3.2857142857142856
aa(lp15
S'2016-09-06'
p16
aF0.6949152542372882
aF1.4509803921568627
aa(lp17
S'2016-09-07'
p18
aF0.680672268907563
aF1.8604651162790697
aa(lp19
S'2016-09-01'
p20
aF0.41843971631205673
aF1.7272727272727273
aa(lp21
S'2016-09-02'
p22
aF0.6666666666666666
aF1.5416666666666667
aa(lp23
S'2016-09-03'
p24
aF1.105263157894737
aF3.4814814814814814
aa(lp25
S'2016-12-04'
p26
aF0.5151515151515151
aF2.342857142857143
aa(lp27
S'2016-12-05'
p28
aF0.5037593984962406
aF2.4285714285714284
aa(lp29
S'2016-12-06'
p30
aF0.47058823529411764
aF1.5833333333333333
aa(lp31
S'2016-12-07'
p32
aF0.639344262295082
aF2.6875
aa(lp33
S'2017-04-11'
p34
aF0.42105263157894735
aF1.1071428571428572
aa(lp35
S'2017-04-10'
p36
aF0.3698630136986301
aF1.0
aa(lp37
S'2016-12-02'
p38
aF0.9607843137254902
aF2.638888888888889
aa(lp39
S'2016-12-03'
p40
aF0.7391304347826086
aF3.121212121212121
aa(lp41
S'2017-01-30'
p42
aF0.9607843137254902
aF2.8
aa(lp43
S'2017-01-31'
p44
aF0.7241379310344828
aF1.9
aa(lp45
S'2016-12-08'
p46
aF0.5384615384615384
aF2.3513513513513513
aa(lp47
S'2017-04-18'
p48
aF0.36054421768707484
aF1.6153846153846154
aa(lp49
S'2017-03-09'
p50
aF0.5037593984962406
aF2.4411764705882355
aa(lp51
S'2017-03-08'
p52
aF0.7699115044247787
aF1.7659574468085106
aa(lp53
S'2016-05-31'
p54
aF0.4492753623188406
aF1.34
aa(lp55
S'2016-05-30'
p56
aF0.5873015873015873
aF1.537037037037037
aa(lp57
S'2017-03-03'
p58
aF0.680672268907563
aF2.6206896551724137
aa(lp59
S'2017-03-02'
p60
aF0.6129032258064516
aF1.4807692307692308
aa(lp61
S'2017-03-01'
p62
aF0.7699115044247787
aF2.5277777777777777
aa(lp63
S'2017-03-07'
p64
aF0.680672268907563
aF1.8421052631578947
aa(lp65
S'2017-03-06'
p66
aF0.6
aF1.7619047619047619
aa(lp67
S'2017-03-05'
p68
aF0.7699115044247787
aF2.823529411764706
aa(lp69
S'2017-03-04'
p70
aF0.47058823529411764
aF1.911764705882353
aa(lp71
S'2016-07-17'
p72
aF0.6
aF2.1142857142857143
aa(lp73
S'2016-07-16'
p74
aF0.6666666666666666
aF1.2352941176470589
aa(lp75
S'2016-11-23'
p76
aF0.7391304347826086
aF2.5757575757575757
aa(lp77
S'2016-11-22'
p78
aF0.7857142857142857
aF2.1025641025641026
aa(lp79
S'2016-11-21'
p80
aF0.8181818181818182
aF2.15
aa(lp81
S'2016-11-20'
p82
aF0.5037593984962406
aF1.6382978723404256
aa(lp83
S'2016-11-27'
p84
aF0.8348623853211009
aF1.9743589743589745
aa(lp85
S'2016-11-26'
p86
aF0.47058823529411764
aF1.4528301886792452
aa(lp87
S'2016-11-25'
p88
aF0.7241379310344828
aF2.235294117647059
aa(lp89
S'2016-07-18'
p90
aF0.6260162601626016
aF1.2777777777777777
aa(lp91
S'2016-11-29'
p92
aF0.680672268907563
aF1.4444444444444444
aa(lp93
S'2016-11-28'
p94
aF0.7391304347826086
aF1.8717948717948718
aa(lp95
S'2017-03-17'
p96
aF0.5267175572519084
aF1.574468085106383
aa(lp97
S'2016-05-10'
p98
aF0.8018018018018018
aF2.757575757575758
aa(lp99
S'2016-10-31'
p100
aF0.6
aF2.303030303030303
aa(lp101
S'2016-10-30'
p102
aF0.3698630136986301
aF1.6875
aa(lp103
S'2017-04-06'
p104
aF0.3698630136986301
aF1.4107142857142858
aa(lp105
S'2016-06-27'
p106
aF0.7543859649122807
aF1.9545454545454546
aa(lp107
S'2016-06-26'
p108
aF0.48148148148148145
aF1.565217391304348
aa(lp109
S'2016-06-25'
p110
aF0.5267175572519084
aF1.3962264150943395
aa(lp111
S'2016-06-24'
p112
aF0.48148148148148145
aF1.3636363636363635
aa(lp113
S'2016-06-23'
p114
aF0.5625
aF1.2586206896551724
aa(lp115
S'2016-06-22'
p116
aF0.5384615384615384
aF1.5365853658536586
aa(lp117
S'2016-06-21'
p118
aF0.41843971631205673
aF1.488888888888889
aa(lp119
S'2016-06-20'
p120
aF0.5384615384615384
aF1.75
aa(lp121
S'2016-06-29'
p122
aF0.4925373134328358
aF1.462962962962963
aa(lp123
S'2016-06-28'
p124
aF0.2903225806451613
aF1.1833333333333333
aa(lp125
S'2016-12-30'
p126
aF0.7699115044247787
aF2.6944444444444446
aa(lp127
S'2017-03-30'
p128
aF0.41843971631205673
aF1.5918367346938775
aa(lp129
S'2017-03-31'
p130
aF0.6446280991735537
aF1.975
aa(lp131
S'2016-12-19'
p132
aF0.3422818791946309
aF1.1764705882352942
aa(lp133
S'2016-11-18'
p134
aF0.6666666666666666
aF1.5333333333333334
aa(lp135
S'2016-11-19'
p136
aF0.8018018018018018
aF2.1463414634146343
aa(lp137
S'2016-11-12'
p138
aF0.639344262295082
aF2.0952380952380953
aa(lp139
S'2016-11-13'
p140
aF0.5625
aF1.5576923076923077
aa(lp141
S'2016-11-10'
p142
aF0.7241379310344828
aF1.9736842105263157
aa(lp143
S'2016-07-30'
p144
aF0.43884892086330934
aF1.5319148936170213
aa(lp145
S'2016-11-16'
p146
aF0.7094017094017094
aF1.8372093023255813
aa(lp147
S'2016-11-17'
p148
aF0.7543859649122807
aF2.5277777777777777
aa(lp149
S'2016-11-14'
p150
aF0.7543859649122807
aF1.8888888888888888
aa(lp151
S'2016-11-15'
p152
aF0.680672268907563
aF2.1707317073170733
aa(lp153
S'2017-04-20'
p154
aF0.3793103448275862
aF2.1818181818181817
aa(lp155
S'2016-09-19'
p156
aF1.0
aF2.4705882352941178
aa(lp157
S'2016-09-18'
p158
aF0.5267175572519084
aF2.342857142857143
aa(lp159
S'2016-03-22'
p160
aF1.0
aF0.0
aa(lp161
S'2016-08-29'
p162
aF0.3986013986013986
aF1.380952380952381
aa(lp163
S'2016-08-28'
p164
aF0.47058823529411764
aF1.5909090909090908
aa(lp165
S'2016-08-25'
p166
aF0.5748031496062992
aF1.75
aa(lp167
S'2016-08-24'
p168
aF0.8518518518518519
aF2.25
aa(lp169
S'2016-08-27'
p170
aF0.9801980198019802
aF3.4285714285714284
aa(lp171
S'2016-08-26'
p172
aF0.6666666666666666
aF2.1315789473684212
aa(lp173
S'2016-08-21'
p174
aF0.6129032258064516
aF2.257142857142857
aa(lp175
S'2016-08-20'
p176
aF0.6
aF1.6595744680851063
aa(lp177
S'2016-08-23'
p178
aF0.6949152542372882
aF2.8181818181818183
aa(lp179
S'2016-08-22'
p180
aF0.6
aF1.6595744680851063
aa(lp181
S'2017-02-01'
p182
aF0.6666666666666666
aF2.236842105263158
aa(lp183
S'2017-02-02'
p184
aF0.680672268907563
aF2.0
aa(lp185
S'2017-02-03'
p186
aF0.7857142857142857
aF1.9
aa(lp187
S'2017-02-04'
p188
aF0.8867924528301887
aF2.6363636363636362
aa(lp189
S'2017-02-05'
p190
aF0.7094017094017094
aF2.8181818181818183
aa(lp191
S'2017-02-06'
p192
aF0.5873015873015873
aF3.259259259259259
aa(lp193
S'2017-02-07'
p194
aF0.6528925619834711
aF2.2222222222222223
aa(lp195
S'2017-02-08'
p196
aF0.47058823529411764
aF2.59375
aa(lp197
S'2017-02-09'
p198
aF0.7094017094017094
aF2.210526315789474
aa(lp199
S'2016-04-30'
p200
aF0.5503875968992248
aF1.7346938775510203
aa(lp201
S'2016-10-08'
p202
aF0.7391304347826086
aF3.225806451612903
aa(lp203
S'2016-10-09'
p204
aF0.5384615384615384
aF2.2857142857142856
aa(lp205
S'2016-10-06'
p206
aF0.7857142857142857
aF2.324324324324324
aa(lp207
S'2016-10-07'
p208
aF0.639344262295082
aF1.7857142857142858
aa(lp209
S'2016-10-04'
p210
aF0.45985401459854014
aF1.813953488372093
aa(lp211
S'2016-10-05'
p212
aF1.105263157894737
aF1.8478260869565217
aa(lp213
S'2016-10-02'
p214
aF0.42857142857142855
aF1.48
aa(lp215
S'2016-10-03'
p216
aF0.6949152542372882
aF2.108108108108108
aa(lp217
S'2016-10-01'
p218
aF0.5503875968992248
aF1.875
aa(lp219
S'2016-09-13'
p220
aF0.6260162601626016
aF2.358974358974359
aa(lp221
S'2016-09-12'
p222
aF0.4084507042253521
aF1.9318181818181819
aa(lp223
S'2016-09-11'
p224
aF0.6260162601626016
aF1.837837837837838
aa(lp225
S'2016-09-10'
p226
aF0.7857142857142857
aF2.6052631578947367
aa(lp227
S'2016-09-17'
p228
aF0.6129032258064516
aF0.890625
aa(lp229
S'2016-09-16'
p230
aF0.680672268907563
aF2.3333333333333335
aa(lp231
S'2016-09-15'
p232
aF0.8867924528301887
aF2.4210526315789473
aa(lp233
S'2016-09-14'
p234
aF0.45985401459854014
aF1.5490196078431373
aa(lp235
S'2016-12-13'
p236
aF0.9607843137254902
aF1.9534883720930232
aa(lp237
S'2016-12-12'
p238
aF0.5037593984962406
aF2.8214285714285716
aa(lp239
S'2016-12-11'
p240
aF0.6129032258064516
aF1.7333333333333334
aa(lp241
S'2016-12-10'
p242
aF0.48148148148148145
aF1.8421052631578947
aa(lp243
S'2016-12-17'
p244
aF0.3157894736842105
aF1.2830188679245282
aa(lp245
S'2016-12-16'
p246
aF0.5037593984962406
aF1.4642857142857142
aa(lp247
S'2016-12-15'
p248
aF0.6129032258064516
aF1.6222222222222222
aa(lp249
S'2016-12-14'
p250
aF0.639344262295082
aF2.2941176470588234
aa(lp251
S'2017-01-29'
p252
aF0.8867924528301887
aF3.6666666666666665
aa(lp253
S'2017-01-28'
p254
aF0.6949152542372882
aF3.225806451612903
aa(lp255
S'2017-01-27'
p256
aF0.6666666666666666
aF2.051282051282051
aa(lp257
S'2017-01-26'
p258
aF0.9801980198019802
aF2.806451612903226
aa(lp259
S'2017-01-25'
p260
aF1.0833333333333333
aF2.8
aa(lp261
S'2017-01-24'
p262
aF0.6949152542372882
aF1.5957446808510638
aa(lp263
S'2017-01-23'
p264
aF0.680672268907563
aF2.1842105263157894
aa(lp265
S'2017-01-22'
p266
aF0.5384615384615384
aF2.0
aa(lp267
S'2017-01-21'
p268
aF0.7699115044247787
aF2.2972972972972974
aa(lp269
S'2017-01-20'
p270
aF0.5384615384615384
aF2.048780487804878
aa(lp271
S'2016-07-02'
p272
aF0.41843971631205673
aF1.0806451612903225
aa(lp273
S'2016-07-03'
p274
aF0.6260162601626016
aF2.225
aa(lp275
S'2016-07-01'
p276
aF0.47058823529411764
aF1.5636363636363637
aa(lp277
S'2016-07-06'
p278
aF0.7241379310344828
aF2.0930232558139537
aa(lp279
S'2016-07-07'
p280
aF0.7391304347826086
aF2.0789473684210527
aa(lp281
S'2016-07-04'
p282
aF0.7543859649122807
aF2.125
aa(lp283
S'2016-07-05'
p284
aF0.5267175572519084
aF2.1794871794871793
aa(lp285
S'2016-05-01'
p286
aF0.3333333333333333
aF1.4807692307692308
aa(lp287
S'2016-07-08'
p288
aF0.5267175572519084
aF1.565217391304348
aa(lp289
S'2016-07-09'
p290
aF0.8348623853211009
aF3.25
aa(lp291
S'2016-05-04'
p292
aF0.5151515151515151
aF1.6136363636363635
aa(lp293
S'2016-05-05'
p294
aF0.7699115044247787
aF1.3333333333333333
aa(lp295
S'2016-05-06'
p296
aF0.6260162601626016
aF1.5
aa(lp297
S'2016-05-07'
p298
aF0.6666666666666666
aF1.5625
aa(lp299
S'2016-06-18'
p300
aF0.5873015873015873
aF1.9523809523809523
aa(lp301
S'2016-06-19'
p302
aF0.3793103448275862
aF0.8611111111111112
aa(lp303
S'2016-06-16'
p304
aF0.4925373134328358
aF1.3404255319148937
aa(lp305
S'2016-06-17'
p306
aF0.5625
aF1.290909090909091
aa(lp307
S'2016-06-14'
p308
aF0.5037593984962406
aF2.1463414634146343
aa(lp309
S'2016-06-15'
p310
aF0.41843971631205673
aF1.2222222222222223
aa(lp311
S'2016-06-12'
p312
aF0.3986013986013986
aF1.7857142857142858
aa(lp313
S'2016-06-13'
p314
aF0.3422818791946309
aF1.5490196078431373
aa(lp315
S'2016-06-10'
p316
aF0.4925373134328358
aF2.0
aa(lp317
S'2016-06-11'
p318
aF0.680672268907563
aF2.0
aa(lp319
S'2016-05-08'
p320
aF0.5873015873015873
aF1.5384615384615385
aa(lp321
S'2016-05-09'
p322
aF0.5748031496062992
aF1.6734693877551021
aa(lp323
S'2016-05-02'
p324
aF0.4084507042253521
aF1.375
aa(lp325
S'2016-05-03'
p326
aF0.6949152542372882
aF2.3658536585365852
aa(lp327
S'2017-03-23'
p328
aF0.5748031496062992
aF2.6206896551724137
aa(lp329
S'2016-12-18'
p330
aF0.30718954248366015
aF0.9298245614035088
aa(lp331
S'2016-09-28'
p332
aF0.6
aF2.657142857142857
aa(lp333
S'2016-09-29'
p334
aF0.4084507042253521
aF1.3272727272727274
aa(lp335
S'2016-09-22'
p336
aF0.9230769230769231
aF3.0344827586206895
aa(lp337
S'2016-09-23'
p338
aF0.680672268907563
aF2.3846153846153846
aa(lp339
S'2016-09-20'
p340
aF0.9607843137254902
aF4.16
aa(lp341
S'2016-09-21'
p342
aF0.45985401459854014
aF2.257142857142857
aa(lp343
S'2016-09-26'
p344
aF0.6666666666666666
aF2.4285714285714284
aa(lp345
S'2016-09-27'
p346
aF0.8181818181818182
aF4.916666666666667
aa(lp347
S'2016-09-24'
p348
aF1.105263157894737
aF3.6
aa(lp349
S'2016-09-25'
p350
aF0.7241379310344828
aF2.967741935483871
aa(lp351
S'2016-12-22'
p352
aF0.5625
aF1.2830188679245282
aa(lp353
S'2016-12-23'
p354
aF0.47058823529411764
aF1.6
aa(lp355
S'2016-12-20'
p356
aF0.5
aF1.9024390243902438
aa(lp357
S'2016-12-21'
p358
aF0.7391304347826086
aF2.966666666666667
aa(lp359
S'2016-12-26'
p360
aF0.5625
aF2.5405405405405403
aa(lp361
S'2016-12-27'
p362
aF0.36054421768707484
aF1.3076923076923077
aa(lp363
S'2016-12-24'
p364
aF0.48148148148148145
aF1.9772727272727273
aa(lp365
S'2016-12-25'
p366
aF0.6949152542372882
aF2.2162162162162162
aa(lp367
S'2016-12-28'
p368
aF0.5669291338582677
aF2.075
aa(lp369
S'2016-12-29'
p370
aF0.7857142857142857
aF2.1794871794871793
aa(lp371
S'2017-01-16'
p372
aF0.6666666666666666
aF1.8837209302325582
aa(lp373
S'2017-01-17'
p374
aF0.8518518518518519
aF2.088235294117647
aa(lp375
S'2017-01-14'
p376
aF0.7857142857142857
aF2.5135135135135136
aa(lp377
S'2017-01-15'
p378
aF0.941747572815534
aF2.9615384615384617
aa(lp379
S'2017-01-12'
p380
aF0.5625
aF2.4285714285714284
aa(lp381
S'2017-01-13'
p382
aF0.639344262295082
aF2.7
aa(lp383
S'2017-01-10'
p384
aF0.7857142857142857
aF2.966666666666667
aa(lp385
S'2017-01-11'
p386
aF0.6260162601626016
aF2.7241379310344827
aa(lp387
S'2017-01-18'
p388
aF0.6129032258064516
aF2.236842105263158
aa(lp389
S'2017-01-19'
p390
aF0.6666666666666666
aF3.066666666666667
aa(lp391
S'2017-03-21'
p392
aF0.45985401459854014
aF1.4074074074074074
aa(lp393
S'2017-03-20'
p394
aF0.6528925619834711
aF2.054054054054054
aa(lp395
S'2016-07-19'
p396
aF0.6260162601626016
aF1.7346938775510203
aa(lp397
S'2017-03-22'
p398
aF0.6260162601626016
aF2.325
aa(lp399
S'2017-03-25'
p400
aF0.8518518518518519
aF3.625
aa(lp401
S'2017-03-24'
p402
aF0.7094017094017094
aF2.6774193548387095
aa(lp403
S'2017-03-27'
p404
aF0.3157894736842105
aF1.8444444444444446
aa(lp405
S'2017-03-26'
p406
aF0.32894736842105265
aF1.9111111111111112
aa(lp407
S'2017-03-29'
p408
aF0.6260162601626016
aF1.875
aa(lp409
S'2017-03-28'
p410
aF0.4632352941176471
aF2.2972972972972974
aa(lp411
S'2016-11-09'
p412
aF0.8691588785046729
aF2.838709677419355
aa(lp413
S'2016-11-08'
p414
aF1.105263157894737
aF2.9285714285714284
aa(lp415
S'2016-11-01'
p416
aF0.7543859649122807
aF3.3333333333333335
aa(lp417
S'2016-11-03'
p418
aF0.6528925619834711
aF2.189189189189189
aa(lp419
S'2016-11-02'
p420
aF0.8518518518518519
aF4.173913043478261
aa(lp421
S'2016-11-05'
p422
aF0.8518518518518519
aF3.4827586206896552
aa(lp423
S'2016-11-04'
p424
aF0.6949152542372882
aF1.925
aa(lp425
S'2016-11-07'
p426
aF0.6666666666666666
aF2.0217391304347827
aa(lp427
S'2016-11-06'
p428
aF0.7543859649122807
aF3.7037037037037037
aa(lp429
S'2016-08-10'
p430
aF0.5037593984962406
aF2.317073170731707
aa(lp431
S'2016-08-11'
p432
aF0.4492753623188406
aF1.6938775510204083
aa(lp433
S'2016-08-12'
p434
aF0.5748031496062992
aF1.5918367346938775
aa(lp435
S'2016-08-13'
p436
aF0.5748031496062992
aF1.7659574468085106
aa(lp437
S'2016-08-14'
p438
aF0.42857142857142855
aF1.4230769230769231
aa(lp439
S'2016-08-15'
p440
aF0.4925373134328358
aF1.2553191489361701
aa(lp441
S'2016-08-16'
p442
aF0.5625
aF1.3888888888888888
aa(lp443
S'2016-08-17'
p444
aF0.5037593984962406
aF2.1578947368421053
aa(lp445
S'2016-08-18'
p446
aF0.5503875968992248
aF2.1
aa(lp447
S'2016-08-19'
p448
aF0.5625
aF1.7446808510638299
aa(lp449
S'2017-02-17'
p450
aF0.5546875
aF1.4666666666666666
aa(lp451
S'2017-02-16'
p452
aF0.6611570247933884
aF1.816326530612245
aa(lp453
S'2017-02-15'
p454
aF0.639344262295082
aF1.8863636363636365
aa(lp455
S'2017-02-14'
p456
aF0.5748031496062992
aF2.081081081081081
aa(lp457
S'2017-02-13'
p458
aF0.5151515151515151
aF1.5348837209302326
aa(lp459
S'2017-02-12'
p460
aF0.6949152542372882
aF1.8444444444444446
aa(lp461
S'2017-02-11'
p462
aF0.7857142857142857
aF2.967741935483871
aa(lp463
S'2017-02-10'
p464
aF0.7857142857142857
aF2.4545454545454546
aa(lp465
S'2016-04-21'
p466
aF0.680672268907563
aF1.9545454545454546
aa(lp467
S'2016-04-23'
p468
aF0.7699115044247787
aF2.289473684210526
aa(lp469
S'2016-04-22'
p470
aF0.8256880733944955
aF4.2
aa(lp471
S'2016-04-25'
p472
aF1.0408163265306123
aF2.3333333333333335
aa(lp473
S'2016-04-24'
p474
aF0.5503875968992248
aF1.9047619047619047
aa(lp475
S'2017-02-19'
p476
aF0.7241379310344828
aF3.032258064516129
aa(lp477
S'2017-02-18'
p478
aF0.6129032258064516
aF1.3
aa(lp479
S'2016-10-19'
p480
aF0.9047619047619048
aF3.096774193548387
aa(lp481
S'2016-10-18'
p482
aF0.9047619047619048
aF2.2857142857142856
aa(lp483
S'2016-10-15'
p484
aF0.6666666666666666
aF2.764705882352941
aa(lp485
S'2016-10-14'
p486
aF0.42857142857142855
aF1.375
aa(lp487
S'2016-10-17'
p488
aF0.7241379310344828
aF2.066666666666667
aa(lp489
S'2016-10-16'
p490
aF0.47058823529411764
aF1.32
aa(lp491
S'2016-10-11'
p492
aF0.7857142857142857
aF2.4444444444444446
aa(lp493
S'2016-10-10'
p494
aF0.7391304347826086
aF2.0232558139534884
aa(lp495
S'2016-10-13'
p496
aF0.5873015873015873
aF1.9285714285714286
aa(lp497
S'2016-10-12'
p498
aF0.5267175572519084
aF2.2
aa(lp499
S'2017-04-15'
p500
aF0.48148148148148145
aF1.3829787234042554
aa(lp501
S'2017-04-14'
p502
aF0.5748031496062992
aF2.0588235294117645
aa(lp503
S'2017-04-17'
p504
aF0.3698630136986301
aF1.4042553191489362
aa(lp505
S'2017-04-16'
p506
aF0.3422818791946309
aF1.6956521739130435
aa(lp507
S'2016-12-01'
p508
aF0.8518518518518519
aF3.75
aa(lp509
S'2017-04-13'
p510
aF0.42857142857142855
aF1.8823529411764706
aa(lp511
S'2017-04-12'
p512
aF0.3586206896551724
aF2.71875
aa(lp513
S'2016-07-11'
p514
aF0.45985401459854014
aF1.813953488372093
aa(lp515
S'2016-07-10'
p516
aF0.7241379310344828
aF2.2777777777777777
aa(lp517
S'2016-07-13'
p518
aF0.5037593984962406
aF2.1136363636363638
aa(lp519
S'2016-07-12'
p520
aF0.6260162601626016
aF1.8604651162790697
aa(lp521
S'2016-07-15'
p522
aF0.7857142857142857
aF3.3870967741935485
aa(lp523
S'2016-07-14'
p524
aF0.6260162601626016
aF1.775
aa(lp525
S'2016-05-19'
p526
aF1.02020202020202
aF3.9583333333333335
aa(lp527
S'2016-05-18'
p528
aF0.7391304347826086
aF2.870967741935484
aa(lp529
S'2016-05-17'
p530
aF0.8018018018018018
aF2.41025641025641
aa(lp531
S'2016-05-16'
p532
aF0.48148148148148145
aF1.3846153846153846
aa(lp533
S'2016-05-15'
p534
aF0.43884892086330934
aF1.4081632653061225
aa(lp535
S'2016-05-14'
p536
aF0.3888888888888889
aF1.851063829787234
aa(lp537
S'2016-05-13'
p538
aF0.3986013986013986
aF1.5625
aa(lp539
S'2016-05-12'
p540
aF0.5384615384615384
aF2.097560975609756
aa(lp541
S'2016-05-11'
p542
aF0.5267175572519084
aF1.9047619047619047
aa(lp543
S'2016-12-09'
p544
aF0.6949152542372882
aF2.5
aa(lp545
S'2016-06-09'
p546
aF0.5625
aF1.4090909090909092
aa(lp547
S'2016-06-08'
p548
aF0.7094017094017094
aF2.6944444444444446
aa(lp549
S'2016-06-05'
p550
aF0.3986013986013986
aF1.4901960784313726
aa(lp551
S'2016-06-04'
p552
aF0.7391304347826086
aF2.4594594594594597
aa(lp553
S'2016-06-07'
p554
aF0.5748031496062992
aF1.565217391304348
aa(lp555
S'2016-06-06'
p556
aF0.6666666666666666
aF1.6046511627906976
aa(lp557
S'2016-06-01'
p558
aF0.7094017094017094
aF4.04
aa(lp559
S'2016-06-03'
p560
aF0.6
aF1.4509803921568627
aa(lp561
S'2016-06-02'
p562
aF0.48148148148148145
aF2.3658536585365852
aa(lp563
S'2017-02-28'
p564
aF0.9801980198019802
aF2.324324324324324
aa(lp565
S'2017-02-26'
p566
aF0.639344262295082
aF2.1219512195121952
aa(lp567
S'2017-02-27'
p568
aF0.8867924528301887
aF2.4
aa(lp569
S'2017-02-24'
p570
aF0.941747572815534
aF2.4324324324324325
aa(lp571
S'2017-02-25'
p572
aF0.8018018018018018
aF1.8333333333333333
aa(lp573
S'2017-02-22'
p574
aF0.8018018018018018
aF2.6176470588235294
aa(lp575
S'2017-02-23'
p576
aF0.9047619047619048
aF2.235294117647059
aa(lp577
S'2017-02-20'
p578
aF0.7241379310344828
aF2.3076923076923075
aa(lp579
S'2017-02-21'
p580
aF0.8018018018018018
aF2.7941176470588234
aa(lp581
S'2016-04-29'
p582
aF0.4492753623188406
aF1.309090909090909
aa(lp583
S'2016-04-28'
p584
aF0.7543859649122807
aF1.975609756097561
aa(lp585
S'2016-09-30'
p586
aF0.7391304347826086
aF1.4901960784313726
aa(lp587
S'2016-12-31'
p588
aF0.9230769230769231
aF3.3793103448275863
aa(lp589
S'2017-04-07'
p590
aF0.6290322580645161
aF1.1923076923076923
aa(lp591
S'2017-04-04'
p592
aF0.48148148148148145
aF1.5333333333333334
aa(lp593
S'2017-04-05'
p594
aF0.5384615384615384
aF2.3783783783783785
aa(lp595
S'2017-04-02'
p596
aF0.4492753623188406
aF1.6521739130434783
aa(lp597
S'2017-04-03'
p598
aF0.4492753623188406
aF1.320754716981132
aa(lp599
S'2017-04-01'
p600
aF0.6129032258064516
aF1.8125
aa(lp601
S'2017-04-08'
p602
aF0.42142857142857143
aF1.6304347826086956
aa(lp603
S'2017-04-09'
p604
aF0.5434782608695652
aF2.4390243902439024
aa(lp605
S'2017-01-05'
p606
aF0.5503875968992248
aF1.8636363636363635
aa(lp607
S'2017-01-04'
p608
aF0.6949152542372882
aF2.358974358974359
aa(lp609
S'2017-01-07'
p610
aF0.5503875968992248
aF2.4857142857142858
aa(lp611
S'2017-01-06'
p612
aF0.6129032258064516
aF1.5333333333333334
aa(lp613
S'2017-01-01'
p614
aF0.8867924528301887
aF3.0344827586206895
aa(lp615
S'2016-04-27'
p616
aF0.7543859649122807
aF2.5
aa(lp617
S'2017-01-03'
p618
aF0.7241379310344828
aF1.553191489361702
aa(lp619
S'2017-01-02'
p620
aF0.5267175572519084
aF1.7045454545454546
aa(lp621
S'2016-04-26'
p622
aF0.5151515151515151
aF2.5555555555555554
aa(lp623
S'2017-01-09'
p624
aF0.45985401459854014
aF1.3018867924528301
aa(lp625
S'2017-01-08'
p626
aF0.3793103448275862
aF2.2162162162162162
aa(lp627
S'2016-05-26'
p628
aF0.47058823529411764
aF1.3269230769230769
aa(lp629
S'2016-05-27'
p630
aF0.35135135135135137
aF1.6818181818181819
aa(lp631
S'2016-05-24'
p632
aF0.6
aF1.6274509803921569
aa(lp633
S'2016-05-25'
p634
aF0.5151515151515151
aF1.6341463414634145
aa(lp635
S'2016-05-22'
p636
aF0.6
aF1.9333333333333333
aa(lp637
S'2016-05-23'
p638
aF0.43884892086330934
aF2.024390243902439
aa(lp639
S'2016-05-20'
p640
aF0.5503875968992248
aF1.7446808510638299
aa(lp641
S'2016-05-21'
p642
aF0.5625
aF1.7708333333333333
aa(lp643
S'2016-07-31'
p644
aF0.4084507042253521
aF1.46
aa(lp645
S'2016-05-28'
p646
aF0.4084507042253521
aF1.3
aa(lp647
S'2016-05-29'
p648
aF0.6129032258064516
aF2.425
aa(lp649
S'2017-03-14'
p650
aF0.6949152542372882
aF2.6551724137931036
aa(lp651
S'2017-03-15'
p652
aF0.5503875968992248
aF2.2051282051282053
aa(lp653
S'2017-03-16'
p654
aF0.5384615384615384
aF2.1794871794871793
aa(lp655
S'2016-11-11'
p656
aF0.7857142857142857
aF2.8666666666666667
aa(lp657
S'2017-03-10'
p658
aF0.6260162601626016
aF2.4857142857142858
aa(lp659
S'2017-03-11'
p660
aF0.5873015873015873
aF2.8666666666666667
aa(lp661
S'2017-03-12'
p662
aF0.6129032258064516
aF2.324324324324324
aa(lp663
S'2017-03-13'
p664
aF0.5873015873015873
aF1.5681818181818181
aa(lp665
S'2017-03-18'
p666
aF0.7857142857142857
aF2.588235294117647
aa(lp667
S'2017-03-19'
p668
aF0.42857142857142855
aF1.411764705882353
aa(lp669
S'2016-11-30'
p670
aF0.6129032258064516
aF1.8444444444444446
aa(lp671
S'2016-08-07'
p672
aF0.6
aF1.309090909090909
aa(lp673
S'2016-08-06'
p674
aF0.6666666666666666
aF2.2162162162162162
aa(lp675
S'2016-08-05'
p676
aF0.7241379310344828
aF2.076923076923077
aa(lp677
S'2016-08-04'
p678
aF0.5151515151515151
aF2.048780487804878
aa(lp679
S'2016-08-03'
p680
aF0.5625
aF2.27027027027027
aa(lp681
S'2016-08-02'
p682
aF0.6528925619834711
aF2.696969696969697
aa(lp683
S'2016-08-01'
p684
aF0.5503875968992248
aF1.744186046511628
aa(lp685
S'2016-11-24'
p686
aF1.0
aF2.5555555555555554
aa(lp687
S'2016-08-09'
p688
aF0.8181818181818182
aF2.4
aa(lp689
S'2016-08-08'
p690
aF0.6
aF1.8666666666666667
aa(lp691
S'2016-10-20'
p692
aF0.7543859649122807
aF3.2903225806451615
aa(lp693
S'2016-10-21'
p694
aF0.5503875968992248
aF2.6857142857142855
aa(lp695
S'2016-10-22'
p696
aF0.5267175572519084
aF1.7608695652173914
aa(lp697
S'2016-10-23'
p698
aF0.5267175572519084
aF1.9555555555555555
aa(lp699
S'2016-10-24'
p700
aF0.5151515151515151
aF1.3125
aa(lp701
S'2016-10-25'
p702
aF0.6949152542372882
aF2.4594594594594597
aa(lp703
S'2016-10-26'
p704
aF0.4492753623188406
aF1.5416666666666667
aa(lp705
S'2016-10-27'
p706
aF0.42857142857142855
aF2.735294117647059
aa(lp707
S'2016-10-28'
p708
aF0.45985401459854014
aF2.024390243902439
aa(lp709
S'2016-10-29'
p710
aF0.6
aF1.7916666666666667
aa(lp711
S'2016-07-24'
p712
aF0.5503875968992248
aF2.0256410256410255
aa(lp713
S'2016-07-25'
p714
aF0.3793103448275862
aF1.5454545454545454
aa(lp715
S'2016-07-26'
p716
aF0.5873015873015873
aF1.8048780487804879
aa(lp717
S'2016-07-27'
p718
aF0.5503875968992248
aF1.6875
aa(lp719
S'2016-07-20'
p720
aF0.680672268907563
aF1.9318181818181819
aa(lp721
S'2016-07-21'
p722
aF0.5151515151515151
aF1.4565217391304348
aa(lp723
S'2016-07-22'
p724
aF0.6528925619834711
aF2.2222222222222223
aa(lp725
S'2016-07-23'
p726
aF0.5037593984962406
aF1.972972972972973
aa(lp727
S'2016-07-28'
p728
aF0.4084507042253521
aF1.28
aa(lp729
S'2016-07-29'
p730
aF0.5037593984962406
aF1.85
aa(lp731
S'2016-06-30'
p732
aF0.5873015873015873
aF1.829268292682927
aa.