(dp0
S'2016-08-30'
p1
(lp2
I32
aI168
aI78
aI63
asS'2016-08-31'
p3
(lp4
I32
aI168
aI62
aI90
asS'2016-09-08'
p5
(lp6
I20
aI180
aI77
aI74
asS'2016-09-09'
p7
(lp8
I35
aI186
aI86
aI105
asS'2016-09-04'
p9
(lp10
I18
aI82
aI54
aI15
asS'2016-09-05'
p11
(lp12
I33
aI167
aI87
aI64
asS'2016-09-06'
p13
(lp14
I32
aI168
aI60
aI59
asS'2016-09-07'
p15
(lp16
I18
aI182
aI99
aI51
asS'2016-09-01'
p17
(lp18
I40
aI160
aI73
aI58
asS'2016-09-02'
p19
(lp20
I28
aI193
aI106
aI26
asS'2016-09-03'
p21
(lp22
I22
aI94
aI71
aI18
asS'2017-04-15'
p23
(lp24
I71
aI97
aI87
aI27
asS'2016-12-05'
p25
(lp26
I35
aI165
aI76
aI22
asS'2017-04-17'
p27
(lp28
I62
aI138
aI84
aI24
asS'2016-12-07'
p29
(lp30
I46
aI154
aI102
aI26
asS'2017-04-11'
p31
(lp32
I41
aI159
aI72
aI58
asS'2017-04-10'
p33
(lp34
I49
aI151
aI92
aI57
asS'2016-12-02'
p35
(lp36
I28
aI207
aI72
aI78
asS'2017-04-12'
p37
(lp38
I45
aI155
aI85
aI71
asS'2017-01-30'
p39
(lp40
I38
aI162
aI79
aI57
asS'2017-01-31'
p41
(lp42
I36
aI164
aI95
aI46
asS'2017-04-19'
p43
(lp44
I36
aI164
aI76
aI54
asS'2017-04-18'
p45
(lp46
I41
aI159
aI63
aI82
asS'2017-03-09'
p47
(lp48
I41
aI159
aI71
aI66
asS'2017-03-08'
p49
(lp50
I45
aI155
aI80
aI59
asS'2016-05-31'
p51
(lp52
I39
aI161
aI53
aI87
asS'2016-05-30'
p53
(lp54
I28
aI172
aI87
aI51
asS'2017-03-03'
p55
(lp56
I41
aI160
aI87
aI34
asS'2017-03-02'
p57
(lp58
I40
aI160
aI85
aI52
asS'2017-03-01'
p59
(lp60
I48
aI152
aI113
aI31
asS'2017-03-07'
p61
(lp62
I42
aI158
aI77
aI56
asS'2017-03-06'
p63
(lp64
I44
aI156
aI89
aI60
asS'2017-03-05'
p65
(lp66
I58
aI106
aI89
aI31
asS'2017-03-04'
p67
(lp68
I72
aI163
aI122
aI56
asS'2016-07-17'
p69
(lp70
I18
aI76
aI38
aI18
asS'2016-07-16'
p71
(lp72
I35
aI93
aI61
aI17
asS'2016-11-23'
p73
(lp74
I64
aI136
aI95
aI43
asS'2016-11-22'
p75
(lp76
I61
aI139
aI102
aI32
asS'2016-11-21'
p77
(lp78
I36
aI164
aI100
aI34
asS'2016-11-20'
p79
(lp80
I26
aI83
aI51
aI15
asS'2016-11-27'
p81
(lp82
I35
aI104
aI79
aI26
asS'2016-11-26'
p83
(lp84
I54
aI93
aI72
aI46
asS'2016-11-25'
p85
(lp86
I47
aI190
aI107
aI35
asS'2016-05-16'
p87
(lp88
I28
aI172
aI74
aI45
asS'2016-11-29'
p89
(lp90
I47
aI153
aI69
aI54
asS'2016-11-28'
p91
(lp92
I35
aI165
aI71
aI63
asS'2017-03-17'
p93
(lp94
I61
aI165
aI118
aI43
asS'2016-07-19'
p95
(lp96
I36
aI164
aI67
aI70
asS'2016-10-31'
p97
(lp98
I41
aI159
aI76
aI75
asS'2016-10-30'
p99
(lp100
I24
aI93
aI63
aI20
asS'2016-12-09'
p101
(lp102
I41
aI190
aI110
aI43
asS'2016-06-27'
p103
(lp104
I21
aI179
aI51
aI109
asS'2016-06-26'
p105
(lp106
I16
aI129
aI48
aI47
asS'2016-06-25'
p107
(lp108
I34
aI163
aI87
aI42
asS'2016-06-24'
p109
(lp110
I27
aI206
aI90
aI109
asS'2016-06-23'
p111
(lp112
I29
aI171
aI86
aI33
asS'2016-06-22'
p113
(lp114
I19
aI181
aI71
aI69
asS'2016-06-21'
p115
(lp116
I30
aI170
aI87
aI36
asS'2016-06-20'
p117
(lp118
I37
aI163
aI88
aI28
asS'2016-06-29'
p119
(lp120
I21
aI179
aI96
aI26
asS'2016-06-28'
p121
(lp122
I21
aI179
aI97
aI45
asS'2017-03-30'
p123
(lp124
I53
aI147
aI100
aI39
asS'2017-03-31'
p125
(lp126
I47
aI182
aI93
aI62
asS'2016-12-19'
p127
(lp128
I34
aI166
aI78
aI48
asS'2016-11-18'
p129
(lp130
I50
aI180
aI126
aI68
asS'2016-11-19'
p131
(lp132
I55
aI128
aI102
aI45
asS'2016-11-12'
p133
(lp134
I49
aI95
aI65
aI35
asS'2016-11-13'
p135
(lp136
I30
aI99
aI65
aI22
asS'2016-11-10'
p137
(lp138
I40
aI160
aI90
aI30
asS'2016-07-30'
p139
(lp140
I27
aI72
aI54
aI24
asS'2016-11-16'
p141
(lp142
I27
aI173
aI81
aI63
asS'2016-11-17'
p143
(lp144
I35
aI165
aI95
aI37
asS'2016-11-14'
p145
(lp146
I24
aI176
aI65
aI58
asS'2016-11-15'
p147
(lp148
I43
aI157
aI66
aI42
asS'2017-04-20'
p149
(lp150
I50
aI150
aI71
aI45
asS'2017-04-21'
p151
(lp152
I65
aI165
aI83
aI67
asS'2016-12-11'
p153
(lp154
I26
aI97
aI69
aI15
asS'2016-09-18'
p155
(lp156
I17
aI75
aI57
aI18
asS'2016-08-29'
p157
(lp158
I34
aI166
aI74
aI38
asS'2016-08-28'
p159
(lp160
I21
aI98
aI58
aI27
asS'2016-08-25'
p161
(lp162
I20
aI180
aI84
aI65
asS'2016-08-24'
p163
(lp164
I35
aI165
aI80
aI75
asS'2016-08-27'
p165
(lp166
I46
aI116
aI69
aI60
asS'2016-08-26'
p167
(lp168
I35
aI190
aI92
aI46
asS'2016-08-21'
p169
(lp170
I19
aI79
aI43
aI17
asS'2016-08-20'
p171
(lp172
I25
aI82
aI64
aI20
asS'2016-08-23'
p173
(lp174
I43
aI157
aI99
aI44
asS'2016-08-22'
p175
(lp176
I35
aI165
aI61
aI76
asS'2017-02-01'
p177
(lp178
I33
aI167
aI108
aI39
asS'2017-02-02'
p179
(lp180
I40
aI160
aI86
aI41
asS'2017-02-03'
p181
(lp182
I61
aI182
aI120
aI37
asS'2017-02-04'
p183
(lp184
I54
aI129
aI92
aI44
asS'2017-02-05'
p185
(lp186
I61
aI113
aI73
aI36
asS'2017-02-06'
p187
(lp188
I57
aI143
aI76
aI55
asS'2017-02-07'
p189
(lp190
I39
aI161
aI102
aI51
asS'2017-02-08'
p191
(lp192
I45
aI155
aI81
aI49
asS'2017-02-09'
p193
(lp194
I41
aI159
aI99
aI32
asS'2016-04-30'
p195
(lp196
I42
aI95
aI74
aI31
asS'2016-10-08'
p197
(lp198
I64
aI106
aI90
aI37
asS'2016-10-09'
p199
(lp200
I29
aI88
aI68
aI22
asS'2016-10-06'
p201
(lp202
I27
aI173
aI86
aI72
asS'2016-10-07'
p203
(lp204
I47
aI165
aI89
aI80
asS'2016-10-04'
p205
(lp206
I50
aI150
aI100
aI54
asS'2016-10-05'
p207
(lp208
I44
aI156
aI74
aI51
asS'2016-10-02'
p209
(lp210
I38
aI65
aI69
aI17
asS'2016-10-03'
p211
(lp212
I37
aI163
aI95
aI49
asS'2016-10-01'
p213
(lp214
I64
aI81
aI95
aI22
asS'2016-09-13'
p215
(lp216
I40
aI160
aI67
aI96
asS'2016-09-12'
p217
(lp218
I31
aI169
aI76
aI36
asS'2016-09-11'
p219
(lp220
I49
aI69
aI82
aI23
asS'2016-09-10'
p221
(lp222
I34
aI97
aI85
aI21
asS'2016-09-17'
p223
(lp224
I30
aI77
aI54
aI26
asS'2016-09-16'
p225
(lp226
I35
aI185
aI101
aI78
asS'2016-09-15'
p227
(lp228
I24
aI176
aI99
aI27
asS'2016-09-14'
p229
(lp230
I33
aI167
aI70
aI65
asS'2016-12-13'
p231
(lp232
I35
aI165
aI74
aI39
asS'2016-12-12'
p233
(lp234
I30
aI170
aI76
aI56
asS'2017-04-22'
p235
(lp236
I48
aI79
aI72
aI23
asS'2016-12-10'
p237
(lp238
I61
aI87
aI78
aI32
asS'2016-12-17'
p239
(lp240
I63
aI129
aI85
aI67
asS'2016-12-16'
p241
(lp242
I46
aI180
aI84
aI52
asS'2016-12-15'
p243
(lp244
I28
aI172
aI81
aI36
asS'2016-12-14'
p245
(lp246
I26
aI174
aI89
aI64
asS'2017-01-29'
p247
(lp248
I48
aI152
aI79
aI24
asS'2017-01-28'
p249
(lp250
I51
aI104
aI80
aI38
asS'2017-01-27'
p251
(lp252
I78
aI159
aI125
aI51
asS'2017-01-26'
p253
(lp254
I40
aI160
aI76
aI56
asS'2017-01-25'
p255
(lp256
I80
aI120
aI100
aI32
asS'2017-01-24'
p257
(lp258
I42
aI158
aI95
aI25
asS'2017-01-23'
p259
(lp260
I53
aI147
aI93
aI55
asS'2017-01-22'
p261
(lp262
I52
aI102
aI83
aI30
asS'2017-01-21'
p263
(lp264
I62
aI116
aI90
aI40
asS'2017-01-20'
p265
(lp266
I58
aI186
aI122
aI45
asS'2016-07-02'
p267
(lp268
I23
aI101
aI63
aI19
asS'2016-07-03'
p269
(lp270
I19
aI90
aI46
aI25
asS'2016-07-01'
p271
(lp272
I25
aI193
aI114
aI37
asS'2016-07-06'
p273
(lp274
I21
aI179
aI81
aI64
asS'2016-07-07'
p275
(lp276
I26
aI174
aI89
aI44
asS'2016-07-04'
p277
(lp278
I28
aI172
aI77
aI60
asS'2016-07-05'
p279
(lp280
I18
aI182
aI62
aI93
asS'2016-05-01'
p281
(lp282
I33
aI84
aI59
aI26
asS'2016-07-08'
p283
(lp284
I31
aI183
aI117
aI21
asS'2016-07-09'
p285
(lp286
I26
aI68
aI53
aI12
asS'2016-05-04'
p287
(lp288
I23
aI177
aI64
aI95
asS'2016-05-05'
p289
(lp290
I36
aI164
aI84
aI56
asS'2016-05-06'
p291
(lp292
I36
aI195
aI102
aI76
asS'2016-05-07'
p293
(lp294
I49
aI116
aI104
aI43
asS'2016-06-18'
p295
(lp296
I48
aI120
aI90
aI25
asS'2016-06-19'
p297
(lp298
I28
aI75
aI45
aI15
asS'2016-06-16'
p299
(lp300
I27
aI173
aI65
aI64
asS'2016-06-17'
p301
(lp302
I32
aI185
aI88
aI40
asS'2016-06-14'
p303
(lp304
I45
aI155
aI56
aI105
asS'2016-06-15'
p305
(lp306
I24
aI176
aI86
aI41
asS'2016-06-12'
p307
(lp308
I18
aI40
aI27
aI10
asS'2016-06-13'
p309
(lp310
I25
aI175
aI55
aI93
asS'2016-06-10'
p311
(lp312
I36
aI173
aI68
aI95
asS'2016-06-11'
p313
(lp314
I32
aI81
aI44
aI28
asS'2016-05-08'
p315
(lp316
I40
aI115
aI90
aI33
asS'2016-05-09'
p317
(lp318
I21
aI179
aI65
aI79
asS'2016-05-02'
p319
(lp320
I41
aI159
aI72
aI55
asS'2016-05-03'
p321
(lp322
I45
aI155
aI58
aI83
asS'2016-12-18'
p323
(lp324
I37
aI122
aI70
aI42
asS'2016-09-28'
p325
(lp326
I35
aI165
aI81
aI42
asS'2016-09-29'
p327
(lp328
I24
aI176
aI78
aI73
asS'2016-09-22'
p329
(lp330
I33
aI167
aI87
aI31
asS'2016-09-23'
p331
(lp332
I48
aI167
aI79
aI81
asS'2016-09-20'
p333
(lp334
I39
aI161
aI65
aI55
asS'2016-09-21'
p335
(lp336
I28
aI172
aI110
aI35
asS'2016-09-26'
p337
(lp338
I34
aI166
aI61
aI83
asS'2016-09-27'
p339
(lp340
I36
aI164
aI73
aI49
asS'2016-09-24'
p341
(lp342
I43
aI86
aI76
aI30
asS'2016-09-25'
p343
(lp344
I23
aI80
aI59
aI14
asS'2016-12-22'
p345
(lp346
I34
aI166
aI76
aI68
asS'2016-12-23'
p347
(lp348
I32
aI208
aI96
aI72
asS'2016-12-20'
p349
(lp350
I45
aI155
aI85
aI48
asS'2016-12-21'
p351
(lp352
I42
aI158
aI77
aI63
asS'2016-12-26'
p353
(lp354
I42
aI113
aI69
aI31
asS'2016-12-27'
p355
(lp356
I48
aI152
aI73
aI36
asS'2016-12-24'
p357
(lp358
I52
aI78
aI34
aI58
asS'2016-12-25'
p359
(lp360
I29
aI120
aI69
aI38
asS'2016-12-28'
p361
(lp362
I50
aI150
aI106
aI51
asS'2016-12-29'
p363
(lp364
I37
aI163
aI83
aI58
asS'2017-01-16'
p365
(lp366
I54
aI146
aI98
aI55
asS'2017-01-17'
p367
(lp368
I45
aI155
aI83
aI69
asS'2017-01-14'
p369
(lp370
I48
aI135
aI87
aI44
asS'2017-01-15'
p371
(lp372
I46
aI102
aI73
aI33
asS'2017-01-12'
p373
(lp374
I41
aI159
aI78
aI62
asS'2017-01-13'
p375
(lp376
I52
aI185
aI114
aI50
asS'2017-01-10'
p377
(lp378
I51
aI149
aI106
aI49
asS'2017-01-11'
p379
(lp380
I44
aI156
aI81
aI47
asS'2017-01-18'
p381
(lp382
I32
aI168
aI85
aI69
asS'2017-01-19'
p383
(lp384
I30
aI170
aI72
aI79
asS'2017-03-21'
p385
(lp386
I41
aI159
aI72
aI74
asS'2017-03-20'
p387
(lp388
I51
aI149
aI89
aI53
asS'2017-03-23'
p389
(lp390
I26
aI174
aI99
aI46
asS'2017-03-22'
p391
(lp392
I39
aI161
aI71
aI71
asS'2017-03-25'
p393
(lp394
I70
aI111
aI102
aI46
asS'2017-03-24'
p395
(lp396
I50
aI178
aI100
aI69
asS'2017-03-27'
p397
(lp398
I52
aI148
aI97
aI40
asS'2017-03-26'
p399
(lp400
I71
aI105
aI99
aI38
asS'2017-03-29'
p401
(lp402
I35
aI165
aI77
aI38
asS'2017-03-28'
p403
(lp404
I40
aI160
aI96
aI37
asS'2016-11-09'
p405
(lp406
I32
aI168
aI85
aI27
asS'2016-11-08'
p407
(lp408
I50
aI150
aI85
aI28
asS'2016-11-01'
p409
(lp410
I31
aI169
aI49
aI93
asS'2016-11-03'
p411
(lp412
I32
aI168
aI79
aI84
asS'2016-11-02'
p413
(lp414
I35
aI165
aI58
aI84
asS'2016-11-05'
p415
(lp416
I35
aI118
aI76
aI37
asS'2016-11-04'
p417
(lp418
I65
aI165
aI101
aI71
asS'2016-11-07'
p419
(lp420
I38
aI162
aI75
aI31
asS'2016-11-06'
p421
(lp422
I67
aI112
aI81
aI40
asS'2016-07-18'
p423
(lp424
I27
aI173
aI80
aI57
asS'2016-08-10'
p425
(lp426
I22
aI178
aI81
aI63
asS'2016-08-11'
p427
(lp428
I37
aI163
aI96
aI31
asS'2016-08-12'
p429
(lp430
I33
aI188
aI88
aI58
asS'2016-08-13'
p431
(lp432
I26
aI67
aI54
aI16
asS'2016-08-14'
p433
(lp434
I25
aI73
aI51
aI16
asS'2016-08-15'
p435
(lp436
I28
aI172
aI94
aI37
asS'2016-08-16'
p437
(lp438
I25
aI175
aI64
aI71
asS'2016-08-17'
p439
(lp440
I24
aI176
aI58
aI63
asS'2016-08-18'
p441
(lp442
I41
aI159
aI91
aI44
asS'2016-08-19'
p443
(lp444
I32
aI186
aI86
aI75
asS'2016-04-29'
p445
(lp446
I55
aI162
aI107
aI82
asS'2017-02-16'
p447
(lp448
I42
aI158
aI99
aI55
asS'2017-02-15'
p449
(lp450
I38
aI162
aI86
aI48
asS'2017-02-14'
p451
(lp452
I40
aI160
aI73
aI49
asS'2017-02-13'
p453
(lp454
I51
aI149
aI103
aI36
asS'2017-02-12'
p455
(lp456
I61
aI139
aI114
aI34
asS'2017-02-11'
p457
(lp458
I65
aI135
aI89
aI61
asS'2017-02-10'
p459
(lp460
I54
aI146
aI107
aI34
asS'2016-04-21'
p461
(lp462
I18
aI182
aI71
aI71
asS'2016-04-20'
p463
(lp464
I23
aI177
aI90
aI39
asS'2016-04-23'
p465
(lp466
I38
aI99
aI72
aI33
asS'2016-04-22'
p467
(lp468
I37
aI193
aI88
aI66
asS'2016-04-25'
p469
(lp470
I20
aI180
aI57
aI86
asS'2016-04-24'
p471
(lp472
I29
aI88
aI56
aI18
asS'2016-04-27'
p473
(lp474
I25
aI175
aI85
aI58
asS'2017-02-18'
p475
(lp476
I68
aI144
aI108
aI38
asS'2016-09-19'
p477
(lp478
I26
aI174
aI84
aI43
asS'2016-10-19'
p479
(lp480
I43
aI157
aI78
aI37
asS'2016-10-18'
p481
(lp482
I40
aI160
aI89
aI24
asS'2016-10-15'
p483
(lp484
I41
aI102
aI72
aI43
asS'2016-10-14'
p485
(lp486
I48
aI182
aI105
aI40
asS'2016-10-17'
p487
(lp488
I44
aI156
aI78
aI64
asS'2016-10-16'
p489
(lp490
I21
aI95
aI65
aI19
asS'2016-10-11'
p491
(lp492
I30
aI170
aI67
aI78
asS'2016-10-10'
p493
(lp494
I44
aI156
aI87
aI19
asS'2016-10-13'
p495
(lp496
I39
aI161
aI87
aI73
asS'2016-10-12'
p497
(lp498
I36
aI164
aI76
aI61
asS'2016-12-04'
p499
(lp500
I45
aI101
aI77
aI21
asS'2017-04-14'
p501
(lp502
I89
aI139
aI105
aI66
asS'2016-12-06'
p503
(lp504
I30
aI170
aI85
aI45
asS'2017-04-16'
p505
(lp506
I64
aI118
aI84
aI36
asS'2016-12-01'
p507
(lp508
I33
aI167
aI70
aI58
asS'2017-04-13'
p509
(lp510
I38
aI162
aI53
aI83
asS'2016-12-03'
p511
(lp512
I48
aI82
aI75
aI33
asS'2016-07-11'
p513
(lp514
I42
aI158
aI84
aI31
asS'2016-07-10'
p515
(lp516
I26
aI80
aI53
aI19
asS'2016-07-13'
p517
(lp518
I29
aI171
aI76
aI70
asS'2016-07-12'
p519
(lp520
I29
aI171
aI85
aI40
asS'2016-07-15'
p521
(lp522
I39
aI180
aI98
aI66
asS'2016-07-14'
p523
(lp524
I28
aI172
aI106
aI32
asS'2016-05-19'
p525
(lp526
I19
aI181
aI102
aI63
asS'2016-05-18'
p527
(lp528
I19
aI181
aI81
aI60
asS'2016-05-17'
p529
(lp530
I21
aI179
aI72
aI75
asS'2016-12-08'
p531
(lp532
I33
aI167
aI106
aI41
asS'2016-05-15'
p533
(lp534
I23
aI80
aI44
aI29
asS'2016-05-14'
p535
(lp536
I28
aI81
aI44
aI41
asS'2016-05-13'
p537
(lp538
I27
aI193
aI103
aI68
asS'2016-05-12'
p539
(lp540
I34
aI166
aI68
aI67
asS'2016-05-11'
p541
(lp542
I34
aI166
aI82
aI79
asS'2016-05-10'
p543
(lp544
I20
aI180
aI73
aI35
asS'2016-06-09'
p545
(lp546
I25
aI175
aI62
aI86
asS'2016-06-08'
p547
(lp548
I27
aI173
aI78
aI52
asS'2016-06-05'
p549
(lp550
I31
aI71
aI53
aI28
asS'2016-06-04'
p551
(lp552
I34
aI93
aI68
aI29
asS'2016-06-07'
p553
(lp554
I28
aI172
aI81
aI46
asS'2016-06-06'
p555
(lp556
I38
aI162
aI82
aI40
asS'2016-06-01'
p557
(lp558
I32
aI168
aI73
aI69
asS'2016-06-03'
p559
(lp560
I41
aI181
aI78
aI85
asS'2016-06-02'
p561
(lp562
I37
aI163
aI91
aI46
asS'2017-02-28'
p563
(lp564
I37
aI163
aI89
aI56
asS'2017-02-26'
p565
(lp566
I67
aI118
aI103
aI37
asS'2017-02-27'
p567
(lp568
I50
aI150
aI90
aI28
asS'2017-02-24'
p569
(lp570
I58
aI142
aI84
aI51
asS'2017-02-25'
p571
(lp572
I61
aI154
aI86
aI62
asS'2017-02-22'
p573
(lp574
I40
aI160
aI88
aI47
asS'2017-02-23'
p575
(lp576
I35
aI165
aI91
aI57
asS'2017-02-20'
p577
(lp578
I69
aI131
aI98
aI39
asS'2017-02-21'
p579
(lp580
I53
aI147
aI109
aI27
asS'2017-02-17'
p581
(lp582
I66
aI155
aI110
aI60
asS'2016-04-28'
p583
(lp584
I35
aI165
aI93
aI57
asS'2016-07-25'
p585
(lp586
I35
aI165
aI76
aI64
asS'2016-09-30'
p587
(lp588
I45
aI176
aI102
aI43
asS'2016-12-31'
p589
(lp590
I49
aI145
aI101
aI42
asS'2016-12-30'
p591
(lp592
I37
aI194
aI90
aI71
asS'2017-04-04'
p593
(lp594
I27
aI173
aI81
aI48
asS'2017-04-05'
p595
(lp596
I33
aI167
aI82
aI61
asS'2017-04-02'
p597
(lp598
I80
aI120
aI105
aI38
asS'2017-04-03'
p599
(lp600
I67
aI133
aI105
aI40
asS'2017-04-01'
p601
(lp602
I82
aI86
aI102
aI22
asS'2016-07-23'
p603
(lp604
I24
aI79
aI58
aI15
asS'2017-04-08'
p605
(lp606
I61
aI110
aI91
aI32
asS'2017-04-09'
p607
(lp608
I67
aI133
aI105
aI41
asS'2017-01-05'
p609
(lp610
I24
aI176
aI72
aI64
asS'2017-01-04'
p611
(lp612
I33
aI167
aI84
aI29
asS'2017-01-07'
p613
(lp614
I59
aI90
aI79
aI30
asS'2017-01-06'
p615
(lp616
I58
aI166
aI98
aI52
asS'2017-01-01'
p617
(lp618
I48
aI102
aI66
aI35
asS'2017-02-19'
p619
(lp620
I55
aI112
aI82
aI27
asS'2017-01-03'
p621
(lp622
I49
aI151
aI85
aI37
asS'2017-01-02'
p623
(lp624
I65
aI131
aI99
aI39
asS'2016-04-26'
p625
(lp626
I22
aI178
aI69
aI65
asS'2017-01-09'
p627
(lp628
I45
aI155
aI81
aI66
asS'2017-01-08'
p629
(lp630
I35
aI93
aI51
aI32
asS'2016-05-26'
p631
(lp632
I36
aI164
aI97
aI49
asS'2016-05-27'
p633
(lp634
I41
aI184
aI110
aI36
asS'2016-05-24'
p635
(lp636
I34
aI166
aI75
aI56
asS'2016-05-25'
p637
(lp638
I37
aI163
aI74
aI44
asS'2016-05-22'
p639
(lp640
I31
aI62
aI47
aI14
asS'2016-05-23'
p641
(lp642
I31
aI169
aI58
aI86
asS'2016-05-20'
p643
(lp644
I42
aI178
aI89
aI44
asS'2016-05-21'
p645
(lp646
I37
aI76
aI63
aI15
asS'2016-07-31'
p647
(lp648
I36
aI65
aI42
aI33
asS'2016-05-28'
p649
(lp650
I32
aI79
aI58
aI28
asS'2016-05-29'
p651
(lp652
I17
aI75
aI53
aI15
asS'2017-03-14'
p653
(lp654
I29
aI171
aI72
aI71
asS'2017-03-15'
p655
(lp656
I37
aI163
aI77
aI42
asS'2017-03-16'
p657
(lp658
I44
aI156
aI94
aI38
asS'2016-11-11'
p659
(lp660
I45
aI195
aI99
aI82
asS'2017-03-10'
p661
(lp662
I57
aI147
aI109
aI40
asS'2017-03-11'
p663
(lp664
I56
aI140
aI91
aI46
asS'2017-03-12'
p665
(lp666
I72
aI128
aI101
aI45
asS'2017-03-13'
p667
(lp668
I47
aI153
aI115
aI37
asS'2017-03-18'
p669
(lp670
I70
aI111
aI108
aI42
asS'2017-03-19'
p671
(lp672
I53
aI140
aI97
aI33
asS'2016-11-30'
p673
(lp674
I42
aI158
aI99
aI47
asS'2016-08-07'
p675
(lp676
I37
aI96
aI67
aI14
asS'2016-08-06'
p677
(lp678
I23
aI65
aI47
aI17
asS'2016-08-05'
p679
(lp680
I46
aI174
aI118
aI38
asS'2016-08-04'
p681
(lp682
I32
aI168
aI86
aI32
asS'2016-08-03'
p683
(lp684
I15
aI43
aI23
aI16
asS'2016-08-02'
p685
(lp686
I25
aI175
aI68
aI83
asS'2016-08-01'
p687
(lp688
I35
aI165
aI74
aI69
asS'2016-11-24'
p689
(lp690
I31
aI169
aI114
aI36
asS'2016-08-09'
p691
(lp692
I33
aI167
aI84
aI45
asS'2016-08-08'
p693
(lp694
I37
aI163
aI77
aI49
asS'2016-04-18'
p695
(lp696
I29
aI171
aI90
aI39
asS'2016-04-19'
p697
(lp698
I35
aI165
aI91
aI49
asS'2016-04-14'
p699
(lp700
I30
aI170
aI92
aI51
asS'2016-04-15'
p701
(lp702
I22
aI186
aI56
aI91
asS'2016-04-16'
p703
(lp704
I27
aI77
aI57
aI25
asS'2016-04-17'
p705
(lp706
I25
aI89
aI42
aI28
asS'2016-10-20'
p707
(lp708
I36
aI164
aI109
aI41
asS'2016-10-21'
p709
(lp710
I50
aI175
aI99
aI77
asS'2016-10-22'
p711
(lp712
I54
aI139
aI97
aI31
asS'2016-10-23'
p713
(lp714
I26
aI104
aI73
aI20
asS'2016-10-24'
p715
(lp716
I31
aI169
aI69
aI48
asS'2016-10-25'
p717
(lp718
I36
aI164
aI73
aI65
asS'2016-10-26'
p719
(lp720
I38
aI162
aI76
aI48
asS'2016-10-27'
p721
(lp722
I38
aI162
aI87
aI43
asS'2016-10-28'
p723
(lp724
I35
aI204
aI107
aI60
asS'2016-10-29'
p725
(lp726
I38
aI77
aI49
aI41
asS'2016-07-24'
p727
(lp728
I26
aI82
aI50
aI18
asS'2017-04-06'
p729
(lp730
I39
aI161
aI81
aI45
asS'2016-07-26'
p731
(lp732
I21
aI179
aI80
aI59
asS'2016-07-27'
p733
(lp734
I17
aI183
aI80
aI60
asS'2016-07-20'
p735
(lp736
I37
aI163
aI103
aI49
asS'2016-07-21'
p737
(lp738
I21
aI179
aI66
aI76
asS'2016-07-22'
p739
(lp740
I41
aI181
aI97
aI35
asS'2017-04-07'
p741
(lp742
I53
aI176
aI105
aI50
asS'2016-07-28'
p743
(lp744
I38
aI162
aI75
aI51
asS'2016-07-29'
p745
(lp746
I32
aI197
aI74
aI64
asS'2016-06-30'
p747
(lp748
I31
aI169
aI85
aI28
as.