(dp0
S'2016-08-30'
p1
(lp2
F0.19047619047619047
aF1.2380952380952381
asS'2016-08-31'
p3
(lp4
F0.19047619047619047
aF0.6888888888888889
asS'2016-09-08'
p5
(lp6
F0.1111111111111111
aF1.0405405405405406
asS'2016-09-09'
p7
(lp8
F0.1881720430107527
aF0.819047619047619
asS'2016-09-04'
p9
(lp10
F0.21951219512195122
aF3.6
asS'2016-09-05'
p11
(lp12
F0.19760479041916168
aF1.359375
asS'2016-09-06'
p13
(lp14
F0.19047619047619047
aF1.0169491525423728
asS'2016-09-07'
p15
(lp16
F0.0989010989010989
aF1.9411764705882353
asS'2016-09-01'
p17
(lp18
F0.25
aF1.2586206896551724
asS'2016-09-02'
p19
(lp20
F0.14507772020725387
aF4.076923076923077
asS'2016-09-03'
p21
(lp22
F0.23404255319148937
aF3.9444444444444446
asS'2017-04-15'
p23
(lp24
F0.7319587628865979
aF3.2222222222222223
asS'2016-12-05'
p25
(lp26
F0.21212121212121213
aF3.4545454545454546
asS'2017-04-17'
p27
(lp28
F0.4492753623188406
aF3.5
asS'2016-12-07'
p29
(lp30
F0.2987012987012987
aF3.923076923076923
asS'2017-04-11'
p31
(lp32
F0.2578616352201258
aF1.2413793103448276
asS'2017-04-10'
p33
(lp34
F0.32450331125827814
aF1.6140350877192982
asS'2016-12-02'
p35
(lp36
F0.13526570048309178
aF0.9230769230769231
asS'2017-04-12'
p37
(lp38
F0.2903225806451613
aF1.1971830985915493
asS'2017-01-30'
p39
(lp40
F0.2345679012345679
aF1.3859649122807018
asS'2017-01-31'
p41
(lp42
F0.21951219512195122
aF2.0652173913043477
asS'2017-04-19'
p43
(lp44
F0.21951219512195122
aF1.4074074074074074
asS'2017-04-18'
p45
(lp46
F0.2578616352201258
aF0.7682926829268293
asS'2017-03-09'
p47
(lp48
F0.2578616352201258
aF1.0757575757575757
asS'2017-03-08'
p49
(lp50
F0.2903225806451613
aF1.3559322033898304
asS'2016-05-31'
p51
(lp52
F0.2422360248447205
aF0.6091954022988506
asS'2016-05-30'
p53
(lp54
F0.16279069767441862
aF1.7058823529411764
asS'2017-03-03'
p55
(lp56
F0.25625
aF2.5588235294117645
asS'2017-03-02'
p57
(lp58
F0.25
aF1.6346153846153846
asS'2017-03-01'
p59
(lp60
F0.3157894736842105
aF3.6451612903225805
asS'2017-03-07'
p61
(lp62
F0.26582278481012656
aF1.375
asS'2017-03-06'
p63
(lp64
F0.28205128205128205
aF1.4833333333333334
asS'2017-03-05'
p65
(lp66
F0.5471698113207547
aF2.870967741935484
asS'2017-03-04'
p67
(lp68
F0.44171779141104295
aF2.1785714285714284
asS'2016-07-17'
p69
(lp70
F0.23684210526315788
aF2.111111111111111
asS'2016-07-16'
p71
(lp72
F0.3763440860215054
aF3.588235294117647
asS'2016-11-23'
p73
(lp74
F0.47058823529411764
aF2.2093023255813953
asS'2016-11-22'
p75
(lp76
F0.43884892086330934
aF3.1875
asS'2016-11-21'
p77
(lp78
F0.21951219512195122
aF2.9411764705882355
asS'2016-11-20'
p79
(lp80
F0.3132530120481928
aF3.4
asS'2016-11-27'
p81
(lp82
F0.33653846153846156
aF3.0384615384615383
asS'2016-11-26'
p83
(lp84
F0.5806451612903226
aF1.565217391304348
asS'2016-11-25'
p85
(lp86
F0.24736842105263157
aF3.057142857142857
asS'2016-05-16'
p87
(lp88
F0.16279069767441862
aF1.6444444444444444
asS'2016-11-29'
p89
(lp90
F0.30718954248366015
aF1.2777777777777777
asS'2016-11-28'
p91
(lp92
F0.21212121212121213
aF1.126984126984127
asS'2017-03-17'
p93
(lp94
F0.3696969696969697
aF2.744186046511628
asS'2016-07-19'
p95
(lp96
F0.21951219512195122
aF0.9571428571428572
asS'2016-10-31'
p97
(lp98
F0.2578616352201258
aF1.0133333333333334
asS'2016-10-30'
p99
(lp100
F0.25806451612903225
aF3.15
asS'2016-12-09'
p101
(lp102
F0.21578947368421053
aF2.558139534883721
asS'2016-06-27'
p103
(lp104
F0.11731843575418995
aF0.46788990825688076
asS'2016-06-26'
p105
(lp106
F0.12403100775193798
aF1.0212765957446808
asS'2016-06-25'
p107
(lp108
F0.2085889570552147
aF2.0714285714285716
asS'2016-06-24'
p109
(lp110
F0.13106796116504854
aF0.8256880733944955
asS'2016-06-23'
p111
(lp112
F0.1695906432748538
aF2.606060606060606
asS'2016-06-22'
p113
(lp114
F0.10497237569060773
aF1.0289855072463767
asS'2016-06-21'
p115
(lp116
F0.17647058823529413
aF2.4166666666666665
asS'2016-06-20'
p117
(lp118
F0.22699386503067484
aF3.142857142857143
asS'2016-06-29'
p119
(lp120
F0.11731843575418995
aF3.6923076923076925
asS'2016-06-28'
p121
(lp122
F0.11731843575418995
aF2.1555555555555554
asS'2017-03-30'
p123
(lp124
F0.36054421768707484
aF2.5641025641025643
asS'2017-03-31'
p125
(lp126
F0.25824175824175827
aF1.5
asS'2016-12-19'
p127
(lp128
F0.20481927710843373
aF1.625
asS'2016-11-18'
p129
(lp130
F0.2777777777777778
aF1.8529411764705883
asS'2016-11-19'
p131
(lp132
F0.4296875
aF2.2666666666666666
asS'2016-11-12'
p133
(lp134
F0.5157894736842106
aF1.8571428571428572
asS'2016-11-13'
p135
(lp136
F0.30303030303030304
aF2.9545454545454546
asS'2016-11-10'
p137
(lp138
F0.25
aF3.0
asS'2016-07-30'
p139
(lp140
F0.375
aF2.25
asS'2016-11-16'
p141
(lp142
F0.15606936416184972
aF1.2857142857142858
asS'2016-11-17'
p143
(lp144
F0.21212121212121213
aF2.5675675675675675
asS'2016-11-14'
p145
(lp146
F0.13636363636363635
aF1.1206896551724137
asS'2016-11-15'
p147
(lp148
F0.27388535031847133
aF1.5714285714285714
asS'2017-04-20'
p149
(lp150
F0.3333333333333333
aF1.5777777777777777
asS'2017-04-21'
p151
(lp152
F0.3939393939393939
aF1.2388059701492538
asS'2016-12-11'
p153
(lp154
F0.26804123711340205
aF4.6
asS'2016-09-18'
p155
(lp156
F0.22666666666666666
aF3.1666666666666665
asS'2016-08-29'
p157
(lp158
F0.20481927710843373
aF1.9473684210526316
asS'2016-08-28'
p159
(lp160
F0.21428571428571427
aF2.1481481481481484
asS'2016-08-25'
p161
(lp162
F0.1111111111111111
aF1.2923076923076924
asS'2016-08-24'
p163
(lp164
F0.21212121212121213
aF1.0666666666666667
asS'2016-08-27'
p165
(lp166
F0.39655172413793105
aF1.15
asS'2016-08-26'
p167
(lp168
F0.18421052631578946
aF2.0
asS'2016-08-21'
p169
(lp170
F0.24050632911392406
aF2.5294117647058822
asS'2016-08-20'
p171
(lp172
F0.3048780487804878
aF3.2
asS'2016-08-23'
p173
(lp174
F0.27388535031847133
aF2.25
asS'2016-08-22'
p175
(lp176
F0.21212121212121213
aF0.8026315789473685
asS'2017-02-01'
p177
(lp178
F0.19760479041916168
aF2.769230769230769
asS'2017-02-02'
p179
(lp180
F0.25
aF2.097560975609756
asS'2017-02-03'
p181
(lp182
F0.33516483516483514
aF3.2432432432432434
asS'2017-02-04'
p183
(lp184
F0.4186046511627907
aF2.090909090909091
asS'2017-02-05'
p185
(lp186
F0.5398230088495575
aF2.0277777777777777
asS'2017-02-06'
p187
(lp188
F0.3986013986013986
aF1.3818181818181818
asS'2017-02-07'
p189
(lp190
F0.2422360248447205
aF2.0
asS'2017-02-08'
p191
(lp192
F0.2903225806451613
aF1.653061224489796
asS'2017-02-09'
p193
(lp194
F0.2578616352201258
aF3.09375
asS'2016-04-30'
p195
(lp196
F0.4421052631578947
aF2.3870967741935485
asS'2016-10-08'
p197
(lp198
F0.6037735849056604
aF2.4324324324324325
asS'2016-10-09'
p199
(lp200
F0.32954545454545453
aF3.090909090909091
asS'2016-10-06'
p201
(lp202
F0.15606936416184972
aF1.1944444444444444
asS'2016-10-07'
p203
(lp204
F0.28484848484848485
aF1.1125
asS'2016-10-04'
p205
(lp206
F0.3333333333333333
aF1.8518518518518519
asS'2016-10-05'
p207
(lp208
F0.28205128205128205
aF1.4509803921568627
asS'2016-10-02'
p209
(lp210
F0.5846153846153846
aF4.0588235294117645
asS'2016-10-03'
p211
(lp212
F0.22699386503067484
aF1.9387755102040816
asS'2016-10-01'
p213
(lp214
F0.7901234567901234
aF4.318181818181818
asS'2016-09-13'
p215
(lp216
F0.25
aF0.6979166666666666
asS'2016-09-12'
p217
(lp218
F0.1834319526627219
aF2.111111111111111
asS'2016-09-11'
p219
(lp220
F0.7101449275362319
aF3.5652173913043477
asS'2016-09-10'
p221
(lp222
F0.35051546391752575
aF4.0476190476190474
asS'2016-09-17'
p223
(lp224
F0.38961038961038963
aF2.076923076923077
asS'2016-09-16'
p225
(lp226
F0.1891891891891892
aF1.294871794871795
asS'2016-09-15'
p227
(lp228
F0.13636363636363635
aF3.6666666666666665
asS'2016-09-14'
p229
(lp230
F0.19760479041916168
aF1.0769230769230769
asS'2016-12-13'
p231
(lp232
F0.21212121212121213
aF1.8974358974358974
asS'2016-12-12'
p233
(lp234
F0.17647058823529413
aF1.3571428571428572
asS'2017-04-22'
p235
(lp236
F0.6075949367088608
aF3.130434782608696
asS'2016-12-10'
p237
(lp238
F0.7011494252873564
aF2.4375
asS'2016-12-17'
p239
(lp240
F0.4883720930232558
aF1.2686567164179106
asS'2016-12-16'
p241
(lp242
F0.25555555555555554
aF1.6153846153846154
asS'2016-12-15'
p243
(lp244
F0.16279069767441862
aF2.25
asS'2016-12-14'
p245
(lp246
F0.14942528735632185
aF1.390625
asS'2017-01-29'
p247
(lp248
F0.3157894736842105
aF3.2916666666666665
asS'2017-01-28'
p249
(lp250
F0.49038461538461536
aF2.1052631578947367
asS'2017-01-27'
p251
(lp252
F0.49056603773584906
aF2.450980392156863
asS'2017-01-26'
p253
(lp254
F0.25
aF1.3571428571428572
asS'2017-01-25'
p255
(lp256
F0.6666666666666666
aF3.125
asS'2017-01-24'
p257
(lp258
F0.26582278481012656
aF3.8
asS'2017-01-23'
p259
(lp260
F0.36054421768707484
aF1.690909090909091
asS'2017-01-22'
p261
(lp262
F0.5098039215686274
aF2.7666666666666666
asS'2017-01-21'
p263
(lp264
F0.5344827586206896
aF2.25
asS'2017-01-20'
p265
(lp266
F0.3118279569892473
aF2.7111111111111112
asS'2016-07-02'
p267
(lp268
F0.22772277227722773
aF3.3157894736842106
asS'2016-07-03'
p269
(lp270
F0.2111111111111111
aF1.84
asS'2016-07-01'
p271
(lp272
F0.12953367875647667
aF3.081081081081081
asS'2016-07-06'
p273
(lp274
F0.11731843575418995
aF1.265625
asS'2016-07-07'
p275
(lp276
F0.14942528735632185
aF2.022727272727273
asS'2016-07-04'
p277
(lp278
F0.16279069767441862
aF1.2833333333333334
asS'2016-07-05'
p279
(lp280
F0.0989010989010989
aF0.6666666666666666
asS'2016-05-01'
p281
(lp282
F0.39285714285714285
aF2.269230769230769
asS'2016-07-08'
p283
(lp284
F0.16939890710382513
aF5.571428571428571
asS'2016-07-09'
p285
(lp286
F0.38235294117647056
aF4.416666666666667
asS'2016-05-04'
p287
(lp288
F0.12994350282485875
aF0.6736842105263158
asS'2016-05-05'
p289
(lp290
F0.21951219512195122
aF1.5
asS'2016-05-06'
p291
(lp292
F0.18461538461538463
aF1.3421052631578947
asS'2016-05-07'
p293
(lp294
F0.4224137931034483
aF2.4186046511627906
asS'2016-06-18'
p295
(lp296
F0.4
aF3.6
asS'2016-06-19'
p297
(lp298
F0.37333333333333335
aF3.0
asS'2016-06-16'
p299
(lp300
F0.15606936416184972
aF1.015625
asS'2016-06-17'
p301
(lp302
F0.17297297297297298
aF2.2
asS'2016-06-14'
p303
(lp304
F0.2903225806451613
aF0.5333333333333333
asS'2016-06-15'
p305
(lp306
F0.13636363636363635
aF2.097560975609756
asS'2016-06-12'
p307
(lp308
F0.45
aF2.7
asS'2016-06-13'
p309
(lp310
F0.14285714285714285
aF0.5913978494623656
asS'2016-06-10'
p311
(lp312
F0.20809248554913296
aF0.7157894736842105
asS'2016-06-11'
p313
(lp314
F0.3950617283950617
aF1.5714285714285714
asS'2016-05-08'
p315
(lp316
F0.34782608695652173
aF2.727272727272727
asS'2016-05-09'
p317
(lp318
F0.11731843575418995
aF0.8227848101265823
asS'2016-05-02'
p319
(lp320
F0.2578616352201258
aF1.309090909090909
asS'2016-05-03'
p321
(lp322
F0.2903225806451613
aF0.6987951807228916
asS'2016-12-18'
p323
(lp324
F0.30327868852459017
aF1.6666666666666667
asS'2016-09-28'
p325
(lp326
F0.21212121212121213
aF1.9285714285714286
asS'2016-09-29'
p327
(lp328
F0.13636363636363635
aF1.0684931506849316
asS'2016-09-22'
p329
(lp330
F0.19760479041916168
aF2.806451612903226
asS'2016-09-23'
p331
(lp332
F0.2874251497005988
aF0.9753086419753086
asS'2016-09-20'
p333
(lp334
F0.2422360248447205
aF1.1818181818181819
asS'2016-09-21'
p335
(lp336
F0.16279069767441862
aF3.142857142857143
asS'2016-09-26'
p337
(lp338
F0.20481927710843373
aF0.7349397590361446
asS'2016-09-27'
p339
(lp340
F0.21951219512195122
aF1.489795918367347
asS'2016-09-24'
p341
(lp342
F0.5
aF2.533333333333333
asS'2016-09-25'
p343
(lp344
F0.2875
aF4.214285714285714
asS'2016-12-22'
p345
(lp346
F0.20481927710843373
aF1.1176470588235294
asS'2016-12-23'
p347
(lp348
F0.15384615384615385
aF1.3333333333333333
asS'2016-12-20'
p349
(lp350
F0.2903225806451613
aF1.7708333333333333
asS'2016-12-21'
p351
(lp352
F0.26582278481012656
aF1.2222222222222223
asS'2016-12-26'
p353
(lp354
F0.37168141592920356
aF2.225806451612903
asS'2016-12-27'
p355
(lp356
F0.3157894736842105
aF2.0277777777777777
asS'2016-12-24'
p357
(lp358
F0.6666666666666666
aF0.5862068965517241
asS'2016-12-25'
p359
(lp360
F0.24166666666666667
aF1.8157894736842106
asS'2016-12-28'
p361
(lp362
F0.3333333333333333
aF2.0784313725490198
asS'2016-12-29'
p363
(lp364
F0.22699386503067484
aF1.4310344827586208
asS'2017-01-16'
p365
(lp366
F0.3698630136986301
aF1.7818181818181817
asS'2017-01-17'
p367
(lp368
F0.2903225806451613
aF1.2028985507246377
asS'2017-01-14'
p369
(lp370
F0.35555555555555557
aF1.9772727272727273
asS'2017-01-15'
p371
(lp372
F0.45098039215686275
aF2.212121212121212
asS'2017-01-12'
p373
(lp374
F0.2578616352201258
aF1.2580645161290323
asS'2017-01-13'
p375
(lp376
F0.2810810810810811
aF2.28
asS'2017-01-10'
p377
(lp378
F0.3422818791946309
aF2.163265306122449
asS'2017-01-11'
p379
(lp380
F0.28205128205128205
aF1.7234042553191489
asS'2017-01-18'
p381
(lp382
F0.19047619047619047
aF1.2318840579710144
asS'2017-01-19'
p383
(lp384
F0.17647058823529413
aF0.9113924050632911
asS'2017-03-21'
p385
(lp386
F0.2578616352201258
aF0.972972972972973
asS'2017-03-20'
p387
(lp388
F0.3422818791946309
aF1.679245283018868
asS'2017-03-23'
p389
(lp390
F0.14942528735632185
aF2.152173913043478
asS'2017-03-22'
p391
(lp392
F0.2422360248447205
aF1.0
asS'2017-03-25'
p393
(lp394
F0.6306306306306306
aF2.217391304347826
asS'2017-03-24'
p395
(lp396
F0.2808988764044944
aF1.4492753623188406
asS'2017-03-27'
p397
(lp398
F0.35135135135135137
aF2.425
asS'2017-03-26'
p399
(lp400
F0.6761904761904762
aF2.6052631578947367
asS'2017-03-29'
p401
(lp402
F0.21212121212121213
aF2.026315789473684
asS'2017-03-28'
p403
(lp404
F0.25
aF2.5945945945945947
asS'2016-11-09'
p405
(lp406
F0.19047619047619047
aF3.1481481481481484
asS'2016-11-08'
p407
(lp408
F0.3333333333333333
aF3.0357142857142856
asS'2016-11-01'
p409
(lp410
F0.1834319526627219
aF0.5268817204301075
asS'2016-11-03'
p411
(lp412
F0.19047619047619047
aF0.9404761904761905
asS'2016-11-02'
p413
(lp414
F0.21212121212121213
aF0.6904761904761905
asS'2016-11-05'
p415
(lp416
F0.2966101694915254
aF2.054054054054054
asS'2016-11-04'
p417
(lp418
F0.3939393939393939
aF1.4225352112676057
asS'2016-11-07'
p419
(lp420
F0.2345679012345679
aF2.4193548387096775
asS'2016-11-06'
p421
(lp422
F0.5982142857142857
aF2.025
asS'2016-07-18'
p423
(lp424
F0.15606936416184972
aF1.4035087719298245
asS'2016-08-10'
p425
(lp426
F0.12359550561797752
aF1.2857142857142858
asS'2016-08-11'
p427
(lp428
F0.22699386503067484
aF3.096774193548387
asS'2016-08-12'
p429
(lp430
F0.17553191489361702
aF1.5172413793103448
asS'2016-08-13'
p431
(lp432
F0.3880597014925373
aF3.375
asS'2016-08-14'
p433
(lp434
F0.3424657534246575
aF3.1875
asS'2016-08-15'
p435
(lp436
F0.16279069767441862
aF2.5405405405405403
asS'2016-08-16'
p437
(lp438
F0.14285714285714285
aF0.9014084507042254
asS'2016-08-17'
p439
(lp440
F0.13636363636363635
aF0.9206349206349206
asS'2016-08-18'
p441
(lp442
F0.2578616352201258
aF2.0681818181818183
asS'2016-08-19'
p443
(lp444
F0.17204301075268819
aF1.1466666666666667
asS'2016-04-29'
p445
(lp446
F0.3395061728395062
aF1.3048780487804879
asS'2017-02-16'
p447
(lp448
F0.26582278481012656
aF1.8
asS'2017-02-15'
p449
(lp450
F0.2345679012345679
aF1.7916666666666667
asS'2017-02-14'
p451
(lp452
F0.25
aF1.489795918367347
asS'2017-02-13'
p453
(lp454
F0.3422818791946309
aF2.861111111111111
asS'2017-02-12'
p455
(lp456
F0.43884892086330934
aF3.3529411764705883
asS'2017-02-11'
p457
(lp458
F0.48148148148148145
aF1.459016393442623
asS'2017-02-10'
p459
(lp460
F0.3698630136986301
aF3.1470588235294117
asS'2016-04-21'
p461
(lp462
F0.0989010989010989
aF1.0
asS'2016-04-20'
p463
(lp464
F0.12994350282485875
aF2.3076923076923075
asS'2016-04-23'
p465
(lp466
F0.3838383838383838
aF2.1818181818181817
asS'2016-04-22'
p467
(lp468
F0.19170984455958548
aF1.3333333333333333
asS'2016-04-25'
p469
(lp470
F0.1111111111111111
aF0.6627906976744186
asS'2016-04-24'
p471
(lp472
F0.32954545454545453
aF3.111111111111111
asS'2016-04-27'
p473
(lp474
F0.14285714285714285
aF1.4655172413793103
asS'2017-02-18'
p475
(lp476
F0.4722222222222222
aF2.8421052631578947
asS'2016-09-19'
p477
(lp478
F0.14942528735632185
aF1.9534883720930232
asS'2016-10-19'
p479
(lp480
F0.27388535031847133
aF2.108108108108108
asS'2016-10-18'
p481
(lp482
F0.25
aF3.7083333333333335
asS'2016-10-15'
p483
(lp484
F0.4019607843137255
aF1.6744186046511629
asS'2016-10-14'
p485
(lp486
F0.26373626373626374
aF2.625
asS'2016-10-17'
p487
(lp488
F0.28205128205128205
aF1.21875
asS'2016-10-16'
p489
(lp490
F0.22105263157894736
aF3.4210526315789473
asS'2016-10-11'
p491
(lp492
F0.17647058823529413
aF0.8589743589743589
asS'2016-10-10'
p493
(lp494
F0.28205128205128205
aF4.578947368421052
asS'2016-10-13'
p495
(lp496
F0.2422360248447205
aF1.1917808219178083
asS'2016-10-12'
p497
(lp498
F0.21951219512195122
aF1.2459016393442623
asS'2016-12-04'
p499
(lp500
F0.44554455445544555
aF3.6666666666666665
asS'2017-04-14'
p501
(lp502
F0.6402877697841727
aF1.5909090909090908
asS'2016-12-06'
p503
(lp504
F0.17647058823529413
aF1.8888888888888888
asS'2017-04-16'
p505
(lp506
F0.5423728813559322
aF2.3333333333333335
asS'2016-12-01'
p507
(lp508
F0.19760479041916168
aF1.206896551724138
asS'2017-04-13'
p509
(lp510
F0.2345679012345679
aF0.6385542168674698
asS'2016-12-03'
p511
(lp512
F0.5853658536585366
aF2.272727272727273
asS'2016-07-11'
p513
(lp514
F0.26582278481012656
aF2.7096774193548385
asS'2016-07-10'
p515
(lp516
F0.325
aF2.789473684210526
asS'2016-07-13'
p517
(lp518
F0.1695906432748538
aF1.0857142857142856
asS'2016-07-12'
p519
(lp520
F0.1695906432748538
aF2.125
asS'2016-07-15'
p521
(lp522
F0.21666666666666667
aF1.4848484848484849
asS'2016-07-14'
p523
(lp524
F0.16279069767441862
aF3.3125
asS'2016-05-19'
p525
(lp526
F0.10497237569060773
aF1.619047619047619
asS'2016-05-18'
p527
(lp528
F0.10497237569060773
aF1.35
asS'2016-05-17'
p529
(lp530
F0.11731843575418995
aF0.96
asS'2016-12-08'
p531
(lp532
F0.19760479041916168
aF2.5853658536585367
asS'2016-05-15'
p533
(lp534
F0.2875
aF1.5172413793103448
asS'2016-05-14'
p535
(lp536
F0.345679012345679
aF1.0731707317073171
asS'2016-05-13'
p537
(lp538
F0.13989637305699482
aF1.5147058823529411
asS'2016-05-12'
p539
(lp540
F0.20481927710843373
aF1.0149253731343284
asS'2016-05-11'
p541
(lp542
F0.20481927710843373
aF1.0379746835443038
asS'2016-05-10'
p543
(lp544
F0.1111111111111111
aF2.085714285714286
asS'2016-06-09'
p545
(lp546
F0.14285714285714285
aF0.7209302325581395
asS'2016-06-08'
p547
(lp548
F0.15606936416184972
aF1.5
asS'2016-06-05'
p549
(lp550
F0.43661971830985913
aF1.8928571428571428
asS'2016-06-04'
p551
(lp552
F0.3655913978494624
aF2.3448275862068964
asS'2016-06-07'
p553
(lp554
F0.16279069767441862
aF1.7608695652173914
asS'2016-06-06'
p555
(lp556
F0.2345679012345679
aF2.05
asS'2016-06-01'
p557
(lp558
F0.19047619047619047
aF1.0579710144927537
asS'2016-06-03'
p559
(lp560
F0.2265193370165746
aF0.9176470588235294
asS'2016-06-02'
p561
(lp562
F0.22699386503067484
aF1.9782608695652173
asS'2017-02-28'
p563
(lp564
F0.22699386503067484
aF1.5892857142857142
asS'2017-02-26'
p565
(lp566
F0.5677966101694916
aF2.7837837837837838
asS'2017-02-27'
p567
(lp568
F0.3333333333333333
aF3.2142857142857144
asS'2017-02-24'
p569
(lp570
F0.4084507042253521
aF1.6470588235294117
asS'2017-02-25'
p571
(lp572
F0.3961038961038961
aF1.3870967741935485
asS'2017-02-22'
p573
(lp574
F0.25
aF1.872340425531915
asS'2017-02-23'
p575
(lp576
F0.21212121212121213
aF1.5964912280701755
asS'2017-02-20'
p577
(lp578
F0.5267175572519084
aF2.5128205128205128
asS'2017-02-21'
p579
(lp580
F0.36054421768707484
aF4.037037037037037
asS'2017-02-17'
p581
(lp582
F0.4258064516129032
aF1.8333333333333333
asS'2016-04-28'
p583
(lp584
F0.21212121212121213
aF1.631578947368421
asS'2016-07-25'
p585
(lp586
F0.21212121212121213
aF1.1875
asS'2016-09-30'
p587
(lp588
F0.2556818181818182
aF2.372093023255814
asS'2016-12-31'
p589
(lp590
F0.33793103448275863
aF2.4047619047619047
asS'2016-12-30'
p591
(lp592
F0.19072164948453607
aF1.267605633802817
asS'2017-04-04'
p593
(lp594
F0.15606936416184972
aF1.6875
asS'2017-04-05'
p595
(lp596
F0.19760479041916168
aF1.3442622950819672
asS'2017-04-02'
p597
(lp598
F0.6666666666666666
aF2.763157894736842
asS'2017-04-03'
p599
(lp600
F0.5037593984962406
aF2.625
asS'2017-04-01'
p601
(lp602
F0.9534883720930233
aF4.636363636363637
asS'2016-07-23'
p603
(lp604
F0.3037974683544304
aF3.8666666666666667
asS'2017-04-08'
p605
(lp606
F0.5545454545454546
aF2.84375
asS'2017-04-09'
p607
(lp608
F0.5037593984962406
aF2.5609756097560976
asS'2017-01-05'
p609
(lp610
F0.13636363636363635
aF1.125
asS'2017-01-04'
p611
(lp612
F0.19760479041916168
aF2.896551724137931
asS'2017-01-07'
p613
(lp614
F0.6555555555555556
aF2.6333333333333333
asS'2017-01-06'
p615
(lp616
F0.3493975903614458
aF1.8846153846153846
asS'2017-01-01'
p617
(lp618
F0.47058823529411764
aF1.8857142857142857
asS'2017-02-19'
p619
(lp620
F0.49107142857142855
aF3.037037037037037
asS'2017-01-03'
p621
(lp622
F0.32450331125827814
aF2.2972972972972974
asS'2017-01-02'
p623
(lp624
F0.4961832061068702
aF2.5384615384615383
asS'2016-04-26'
p625
(lp626
F0.12359550561797752
aF1.0615384615384615
asS'2017-01-09'
p627
(lp628
F0.2903225806451613
aF1.2272727272727273
asS'2017-01-08'
p629
(lp630
F0.3763440860215054
aF1.59375
asS'2016-05-26'
p631
(lp632
F0.21951219512195122
aF1.9795918367346939
asS'2016-05-27'
p633
(lp634
F0.22282608695652173
aF3.0555555555555554
asS'2016-05-24'
p635
(lp636
F0.20481927710843373
aF1.3392857142857142
asS'2016-05-25'
p637
(lp638
F0.22699386503067484
aF1.6818181818181819
asS'2016-05-22'
p639
(lp640
F0.5
aF3.357142857142857
asS'2016-05-23'
p641
(lp642
F0.1834319526627219
aF0.6744186046511628
asS'2016-05-20'
p643
(lp644
F0.23595505617977527
aF2.022727272727273
asS'2016-05-21'
p645
(lp646
F0.4868421052631579
aF4.2
asS'2016-07-31'
p647
(lp648
F0.5538461538461539
aF1.2727272727272727
asS'2016-05-28'
p649
(lp650
F0.4050632911392405
aF2.0714285714285716
asS'2016-05-29'
p651
(lp652
F0.22666666666666666
aF3.533333333333333
asS'2017-03-14'
p653
(lp654
F0.1695906432748538
aF1.0140845070422535
asS'2017-03-15'
p655
(lp656
F0.22699386503067484
aF1.8333333333333333
asS'2017-03-16'
p657
(lp658
F0.28205128205128205
aF2.473684210526316
asS'2016-11-11'
p659
(lp660
F0.23076923076923078
aF1.2073170731707317
asS'2017-03-10'
p661
(lp662
F0.3877551020408163
aF2.725
asS'2017-03-11'
p663
(lp664
F0.4
aF1.9782608695652173
asS'2017-03-12'
p665
(lp666
F0.5625
aF2.2444444444444445
asS'2017-03-13'
p667
(lp668
F0.30718954248366015
aF3.108108108108108
asS'2017-03-18'
p669
(lp670
F0.6306306306306306
aF2.5714285714285716
asS'2017-03-19'
p671
(lp672
F0.37857142857142856
aF2.9393939393939394
asS'2016-11-30'
p673
(lp674
F0.26582278481012656
aF2.106382978723404
asS'2016-08-07'
p675
(lp676
F0.3854166666666667
aF4.785714285714286
asS'2016-08-06'
p677
(lp678
F0.35384615384615387
aF2.764705882352941
asS'2016-08-05'
p679
(lp680
F0.26436781609195403
aF3.1052631578947367
asS'2016-08-04'
p681
(lp682
F0.19047619047619047
aF2.6875
asS'2016-08-03'
p683
(lp684
F0.3488372093023256
aF1.4375
asS'2016-08-02'
p685
(lp686
F0.14285714285714285
aF0.8192771084337349
asS'2016-08-01'
p687
(lp688
F0.21212121212121213
aF1.0724637681159421
asS'2016-11-24'
p689
(lp690
F0.1834319526627219
aF3.1666666666666665
asS'2016-08-09'
p691
(lp692
F0.19760479041916168
aF1.8666666666666667
asS'2016-08-08'
p693
(lp694
F0.22699386503067484
aF1.5714285714285714
asS'2016-04-18'
p695
(lp696
F0.1695906432748538
aF2.3076923076923075
asS'2016-04-19'
p697
(lp698
F0.21212121212121213
aF1.8571428571428572
asS'2016-04-14'
p699
(lp700
F0.17647058823529413
aF1.803921568627451
asS'2016-04-15'
p701
(lp702
F0.11827956989247312
aF0.6153846153846154
asS'2016-04-16'
p703
(lp704
F0.35064935064935066
aF2.28
asS'2016-04-17'
p705
(lp706
F0.2808988764044944
aF1.5
asS'2016-10-20'
p707
(lp708
F0.21951219512195122
aF2.658536585365854
asS'2016-10-21'
p709
(lp710
F0.2857142857142857
aF1.2857142857142858
asS'2016-10-22'
p711
(lp712
F0.38848920863309355
aF3.129032258064516
asS'2016-10-23'
p713
(lp714
F0.25
aF3.65
asS'2016-10-24'
p715
(lp716
F0.1834319526627219
aF1.4375
asS'2016-10-25'
p717
(lp718
F0.21951219512195122
aF1.123076923076923
asS'2016-10-26'
p719
(lp720
F0.2345679012345679
aF1.5833333333333333
asS'2016-10-27'
p721
(lp722
F0.2345679012345679
aF2.0232558139534884
asS'2016-10-28'
p723
(lp724
F0.1715686274509804
aF1.7833333333333334
asS'2016-10-29'
p725
(lp726
F0.4935064935064935
aF1.1951219512195121
asS'2016-07-24'
p727
(lp728
F0.3170731707317073
aF2.7777777777777777
asS'2017-04-06'
p729
(lp730
F0.2422360248447205
aF1.8
asS'2016-07-26'
p731
(lp732
F0.11731843575418995
aF1.3559322033898304
asS'2016-07-27'
p733
(lp734
F0.09289617486338798
aF1.3333333333333333
asS'2016-07-20'
p735
(lp736
F0.22699386503067484
aF2.1020408163265305
asS'2016-07-21'
p737
(lp738
F0.11731843575418995
aF0.868421052631579
asS'2016-07-22'
p739
(lp740
F0.2265193370165746
aF2.7714285714285714
asS'2017-04-07'
p741
(lp742
F0.30113636363636365
aF2.1
asS'2016-07-28'
p743
(lp744
F0.2345679012345679
aF1.4705882352941178
asS'2016-07-29'
p745
(lp746
F0.16243654822335024
aF1.15625
asS'2016-06-30'
p747
(lp748
F0.1834319526627219
aF3.0357142857142856
as.