(dp0
S'2017-04-21'
p1
(lp2
F0.3939393939393939
aF1.2388059701492538
asS'2017-04-05'
p3
(lp4
F0.19760479041916168
aF1.3442622950819672
asS'2017-04-12'
p5
(lp6
F0.2903225806451613
aF1.1971830985915493
asS'2016-11-09'
p7
(lp8
F0.19047619047619047
aF3.1481481481481484
asS'2016-11-08'
p9
(lp10
F0.3333333333333333
aF3.0357142857142856
asS'2017-04-22'
p11
(lp12
F0.6075949367088608
aF3.130434782608696
asS'2017-04-19'
p13
(lp14
F0.21951219512195122
aF1.4074074074074074
asS'2017-03-30'
p15
(lp16
F0.36054421768707484
aF2.5641025641025643
asS'2017-03-31'
p17
(lp18
F0.25824175824175827
aF1.5
asS'2017-02-28'
p19
(lp20
F0.22699386503067484
aF1.5892857142857142
asS'2017-02-26'
p21
(lp22
F0.5677966101694916
aF2.7837837837837838
asS'2017-02-27'
p23
(lp24
F0.3333333333333333
aF3.2142857142857144
asS'2017-02-24'
p25
(lp26
F0.4084507042253521
aF1.6470588235294117
asS'2017-02-25'
p27
(lp28
F0.3961038961038961
aF1.3870967741935485
asS'2017-02-22'
p29
(lp30
F0.25
aF1.872340425531915
asS'2017-02-23'
p31
(lp32
F0.21212121212121213
aF1.5964912280701755
asS'2017-02-20'
p33
(lp34
F0.5267175572519084
aF2.5128205128205128
asS'2017-02-21'
p35
(lp36
F0.36054421768707484
aF4.037037037037037
asS'2016-12-22'
p37
(lp38
F0.20481927710843373
aF1.1176470588235294
asS'2016-12-23'
p39
(lp40
F0.15384615384615385
aF1.3333333333333333
asS'2016-12-20'
p41
(lp42
F0.2903225806451613
aF1.7708333333333333
asS'2016-12-21'
p43
(lp44
F0.26582278481012656
aF1.2222222222222223
asS'2016-12-26'
p45
(lp46
F0.37168141592920356
aF2.225806451612903
asS'2016-12-27'
p47
(lp48
F0.3157894736842105
aF2.0277777777777777
asS'2016-12-24'
p49
(lp50
F0.6666666666666666
aF0.5862068965517241
asS'2016-12-25'
p51
(lp52
F0.24166666666666667
aF1.8157894736842106
asS'2017-01-09'
p53
(lp54
F0.2903225806451613
aF1.2272727272727273
asS'2016-12-28'
p55
(lp56
F0.3333333333333333
aF2.0784313725490198
asS'2016-12-29'
p57
(lp58
F0.22699386503067484
aF1.4310344827586208
asS'2017-03-09'
p59
(lp60
F0.2578616352201258
aF1.0757575757575757
asS'2017-01-16'
p61
(lp62
F0.3698630136986301
aF1.7818181818181817
asS'2017-01-17'
p63
(lp64
F0.2903225806451613
aF1.2028985507246377
asS'2016-11-18'
p65
(lp66
F0.2777777777777778
aF1.8529411764705883
asS'2017-01-15'
p67
(lp68
F0.45098039215686275
aF2.212121212121212
asS'2017-01-12'
p69
(lp70
F0.2578616352201258
aF1.2580645161290323
asS'2017-01-13'
p71
(lp72
F0.2810810810810811
aF2.28
asS'2017-01-10'
p73
(lp74
F0.3422818791946309
aF2.163265306122449
asS'2017-01-11'
p75
(lp76
F0.28205128205128205
aF1.7234042553191489
asS'2016-11-12'
p77
(lp78
F0.5157894736842106
aF1.8571428571428572
asS'2016-11-13'
p79
(lp80
F0.30303030303030304
aF2.9545454545454546
asS'2016-11-10'
p81
(lp82
F0.25
aF3.0
asS'2016-11-11'
p83
(lp84
F0.23076923076923078
aF1.2073170731707317
asS'2016-11-16'
p85
(lp86
F0.15606936416184972
aF1.2857142857142858
asS'2016-11-17'
p87
(lp88
F0.21212121212121213
aF2.5675675675675675
asS'2017-01-18'
p89
(lp90
F0.19047619047619047
aF1.2318840579710144
asS'2017-01-19'
p91
(lp92
F0.17647058823529413
aF0.9113924050632911
asS'2016-12-13'
p93
(lp94
F0.21212121212121213
aF1.8974358974358974
asS'2016-12-12'
p95
(lp96
F0.17647058823529413
aF1.3571428571428572
asS'2016-12-11'
p97
(lp98
F0.26804123711340205
aF4.6
asS'2016-12-31'
p99
(lp100
F0.33793103448275863
aF2.4047619047619047
asS'2017-04-07'
p101
(lp102
F0.30113636363636365
aF2.1
asS'2017-04-04'
p103
(lp104
F0.15606936416184972
aF1.6875
asS'2017-03-22'
p105
(lp106
F0.2422360248447205
aF1.0
asS'2017-04-02'
p107
(lp108
F0.6666666666666666
aF2.763157894736842
asS'2017-04-03'
p109
(lp110
F0.5037593984962406
aF2.625
asS'2017-03-27'
p111
(lp112
F0.35135135135135137
aF2.425
asS'2017-04-01'
p113
(lp114
F0.9534883720930233
aF4.636363636363637
asS'2017-03-29'
p115
(lp116
F0.21212121212121213
aF2.026315789473684
asS'2017-03-28'
p117
(lp118
F0.25
aF2.5945945945945947
asS'2017-01-14'
p119
(lp120
F0.35555555555555557
aF1.9772727272727273
asS'2017-04-08'
p121
(lp122
F0.5545454545454546
aF2.84375
asS'2017-04-09'
p123
(lp124
F0.5037593984962406
aF2.5609756097560976
asS'2017-01-05'
p125
(lp126
F0.13636363636363635
aF1.125
asS'2017-01-04'
p127
(lp128
F0.19760479041916168
aF2.896551724137931
asS'2017-01-07'
p129
(lp130
F0.6555555555555556
aF2.6333333333333333
asS'2017-01-06'
p131
(lp132
F0.3493975903614458
aF1.8846153846153846
asS'2017-01-01'
p133
(lp134
F0.47058823529411764
aF1.8857142857142857
asS'2017-03-05'
p135
(lp136
F0.5471698113207547
aF2.870967741935484
asS'2017-01-03'
p137
(lp138
F0.32450331125827814
aF2.2972972972972974
asS'2017-01-02'
p139
(lp140
F0.4961832061068702
aF2.5384615384615383
asS'2017-03-04'
p141
(lp142
F0.44171779141104295
aF2.1785714285714284
asS'2016-11-05'
p143
(lp144
F0.358974358974359
aF1.7407407407407407
asS'2017-01-08'
p145
(lp146
F0.3763440860215054
aF1.59375
asS'2016-11-07'
p147
(lp148
F0.2345679012345679
aF2.4193548387096775
asS'2016-11-06'
p149
(lp150
F0.5982142857142857
aF2.025
asS'2017-02-01'
p151
(lp152
F0.19760479041916168
aF2.769230769230769
asS'2017-02-02'
p153
(lp154
F0.25
aF2.097560975609756
asS'2017-02-03'
p155
(lp156
F0.33516483516483514
aF3.2432432432432434
asS'2017-02-04'
p157
(lp158
F0.4186046511627907
aF2.090909090909091
asS'2017-02-05'
p159
(lp160
F0.5398230088495575
aF2.0277777777777777
asS'2017-02-06'
p161
(lp162
F0.3986013986013986
aF1.3818181818181818
asS'2017-02-07'
p163
(lp164
F0.2422360248447205
aF2.0
asS'2017-02-08'
p165
(lp166
F0.2903225806451613
aF1.653061224489796
asS'2017-02-09'
p167
(lp168
F0.2578616352201258
aF3.09375
asS'2016-12-04'
p169
(lp170
F0.44554455445544555
aF3.6666666666666665
asS'2016-12-05'
p171
(lp172
F0.21212121212121213
aF3.4545454545454546
asS'2016-12-06'
p173
(lp174
F0.17647058823529413
aF1.8888888888888888
asS'2016-12-07'
p175
(lp176
F0.2987012987012987
aF3.923076923076923
asS'2017-03-10'
p177
(lp178
F0.3877551020408163
aF2.725
asS'2017-03-11'
p179
(lp180
F0.4
aF1.9782608695652173
asS'2016-12-02'
p181
(lp182
F0.13526570048309178
aF0.9230769230769231
asS'2016-12-03'
p183
(lp184
F0.5853658536585366
aF2.272727272727273
asS'2017-01-30'
p185
(lp186
F0.2345679012345679
aF1.3859649122807018
asS'2017-01-31'
p187
(lp188
F0.21951219512195122
aF2.0652173913043477
asS'2017-03-18'
p189
(lp190
F0.6306306306306306
aF2.5714285714285716
asS'2017-03-19'
p191
(lp192
F0.37857142857142856
aF2.9393939393939394
asS'2016-11-14'
p193
(lp194
F0.13636363636363635
aF1.1206896551724137
asS'2017-04-15'
p195
(lp196
F0.7319587628865979
aF3.2222222222222223
asS'2016-11-15'
p197
(lp198
F0.27388535031847133
aF1.5714285714285714
asS'2016-11-30'
p199
(lp200
F0.26582278481012656
aF2.106382978723404
asS'2017-02-17'
p201
(lp202
F0.4258064516129032
aF1.8333333333333333
asS'2017-02-16'
p203
(lp204
F0.26582278481012656
aF1.8
asS'2017-02-15'
p205
(lp206
F0.2345679012345679
aF1.7916666666666667
asS'2017-03-08'
p207
(lp208
F0.2903225806451613
aF1.3559322033898304
asS'2017-02-13'
p209
(lp210
F0.3422818791946309
aF2.861111111111111
asS'2017-02-12'
p211
(lp212
F0.43884892086330934
aF3.3529411764705883
asS'2017-02-11'
p213
(lp214
F0.48148148148148145
aF1.459016393442623
asS'2017-02-10'
p215
(lp216
F0.3698630136986301
aF3.1470588235294117
asS'2017-04-20'
p217
(lp218
F0.3333333333333333
aF1.5777777777777777
asS'2017-03-02'
p219
(lp220
F0.25
aF1.6346153846153846
asS'2017-03-01'
p221
(lp222
F0.3157894736842105
aF3.6451612903225805
asS'2016-12-10'
p223
(lp224
F0.7011494252873564
aF2.4375
asS'2017-03-07'
p225
(lp226
F0.26582278481012656
aF1.375
asS'2016-12-16'
p227
(lp228
F0.25555555555555554
aF1.6153846153846154
asS'2017-02-19'
p229
(lp230
F0.49107142857142855
aF3.037037037037037
asS'2017-02-18'
p231
(lp232
F0.4722222222222222
aF2.8421052631578947
asS'2016-12-15'
p233
(lp234
F0.16279069767441862
aF2.25
asS'2017-01-29'
p235
(lp236
F0.3157894736842105
aF3.2916666666666665
asS'2017-01-28'
p237
(lp238
F0.49038461538461536
aF2.1052631578947367
asS'2017-01-27'
p239
(lp240
F0.49056603773584906
aF2.450980392156863
asS'2017-01-26'
p241
(lp242
F0.25
aF1.3571428571428572
asS'2017-01-25'
p243
(lp244
F0.6666666666666666
aF3.125
asS'2017-01-24'
p245
(lp246
F0.26582278481012656
aF3.8
asS'2017-01-23'
p247
(lp248
F0.36054421768707484
aF1.690909090909091
asS'2017-01-22'
p249
(lp250
F0.5098039215686274
aF2.7666666666666666
asS'2017-01-21'
p251
(lp252
F0.5344827586206896
aF2.25
asS'2017-01-20'
p253
(lp254
F0.3118279569892473
aF2.7111111111111112
asS'2016-11-23'
p255
(lp256
F0.47058823529411764
aF2.2093023255813953
asS'2016-11-22'
p257
(lp258
F0.43884892086330934
aF3.1875
asS'2016-11-21'
p259
(lp260
F0.21951219512195122
aF2.9411764705882355
asS'2016-11-20'
p261
(lp262
F0.3132530120481928
aF3.4
asS'2016-11-27'
p263
(lp264
F0.33653846153846156
aF3.0384615384615383
asS'2016-11-26'
p265
(lp266
F0.5806451612903226
aF1.565217391304348
asS'2016-11-25'
p267
(lp268
F0.24736842105263157
aF3.057142857142857
asS'2016-11-24'
p269
(lp270
F0.1834319526627219
aF3.1666666666666665
asS'2016-11-29'
p271
(lp272
F0.30718954248366015
aF1.2777777777777777
asS'2016-11-28'
p273
(lp274
F0.21212121212121213
aF1.126984126984127
asS'2016-12-14'
p275
(lp276
F0.14942528735632185
aF1.390625
asS'2017-03-14'
p277
(lp278
F0.1695906432748538
aF1.0140845070422535
asS'2017-03-15'
p279
(lp280
F0.22699386503067484
aF1.8333333333333333
asS'2017-04-17'
p281
(lp282
F0.4492753623188406
aF3.5
asS'2017-03-17'
p283
(lp284
F0.3696969696969697
aF2.744186046511628
asS'2017-04-11'
p285
(lp286
F0.2578616352201258
aF1.2413793103448276
asS'2017-03-06'
p287
(lp288
F0.28205128205128205
aF1.4833333333333334
asS'2017-04-10'
p289
(lp290
F0.32450331125827814
aF1.6140350877192982
asS'2017-04-13'
p291
(lp292
F0.2345679012345679
aF0.6385542168674698
asS'2016-12-01'
p293
(lp294
F0.19760479041916168
aF1.206896551724138
asS'2017-03-13'
p295
(lp296
F0.30718954248366015
aF3.108108108108108
asS'2017-03-16'
p297
(lp298
F0.28205128205128205
aF2.473684210526316
asS'2016-12-17'
p299
(lp300
F0.4883720930232558
aF1.2686567164179106
asS'2016-12-08'
p301
(lp302
F0.19760479041916168
aF2.5853658536585367
asS'2017-04-18'
p303
(lp304
F0.2578616352201258
aF0.7682926829268293
asS'2017-04-16'
p305
(lp306
F0.5423728813559322
aF2.3333333333333335
asS'2017-03-21'
p307
(lp308
F0.2578616352201258
aF0.972972972972973
asS'2016-12-19'
p309
(lp310
F0.20481927710843373
aF1.625
asS'2017-04-14'
p311
(lp312
F0.6402877697841727
aF1.5909090909090908
asS'2017-04-06'
p313
(lp314
F0.2422360248447205
aF1.8
asS'2016-12-30'
p315
(lp316
F0.19072164948453607
aF1.267605633802817
asS'2017-03-20'
p317
(lp318
F0.3422818791946309
aF1.679245283018868
asS'2016-12-09'
p319
(lp320
F0.21578947368421053
aF2.558139534883721
asS'2017-03-23'
p321
(lp322
F0.14942528735632185
aF2.152173913043478
asS'2016-11-19'
p323
(lp324
F0.4296875
aF2.2666666666666666
asS'2016-12-18'
p325
(lp326
F0.30327868852459017
aF1.6666666666666667
asS'2017-03-25'
p327
(lp328
F0.6306306306306306
aF2.217391304347826
asS'2017-03-03'
p329
(lp330
F0.25625
aF2.5588235294117645
asS'2017-03-24'
p331
(lp332
F0.2808988764044944
aF1.4492753623188406
asS'2017-02-14'
p333
(lp334
F0.25
aF1.489795918367347
asS'2017-03-26'
p335
(lp336
F0.6761904761904762
aF2.6052631578947367
asS'2017-03-12'
p337
(lp338
F0.5625
aF2.2444444444444445
as.