(lp0
(lp1
S'2016-12-06'
p2
aI30
aI170
aI85
aI45
aa(lp3
S'2016-11-09'
p4
aI32
aI168
aI85
aI27
aa(lp5
S'2016-12-07'
p6
aI46
aI154
aI102
aI26
aa(lp7
S'2016-12-04'
p8
aI45
aI101
aI77
aI21
aa(lp9
S'2017-01-06'
p10
aI58
aI166
aI98
aI52
aa(lp11
S'2016-12-31'
p12
aI49
aI145
aI101
aI42
aa(lp13
S'2016-12-20'
p14
aI45
aI155
aI85
aI48
aa(lp15
S'2016-12-21'
p16
aI42
aI158
aI77
aI63
aa(lp17
S'2017-02-28'
p18
aI37
aI163
aI89
aI56
aa(lp19
S'2017-02-26'
p20
aI67
aI118
aI103
aI37
aa(lp21
S'2017-02-27'
p22
aI50
aI150
aI90
aI28
aa(lp23
S'2017-02-24'
p24
aI58
aI142
aI84
aI51
aa(lp25
S'2017-02-25'
p26
aI61
aI154
aI86
aI62
aa(lp27
S'2017-02-22'
p28
aI40
aI160
aI88
aI47
aa(lp29
S'2017-02-23'
p30
aI35
aI165
aI91
aI57
aa(lp31
S'2017-02-20'
p32
aI69
aI131
aI98
aI39
aa(lp33
S'2017-02-21'
p34
aI53
aI147
aI109
aI27
aa(lp35
S'2016-12-22'
p36
aI34
aI166
aI76
aI68
aa(lp37
S'2016-12-23'
p38
aI32
aI208
aI96
aI72
aa(lp39
S'2017-03-30'
p40
aI53
aI147
aI100
aI39
aa(lp41
S'2017-03-31'
p42
aI47
aI182
aI93
aI62
aa(lp43
S'2016-12-26'
p44
aI42
aI113
aI69
aI31
aa(lp45
S'2016-12-27'
p46
aI48
aI152
aI73
aI36
aa(lp47
S'2016-12-24'
p48
aI52
aI78
aI34
aI58
aa(lp49
S'2016-12-25'
p50
aI29
aI120
aI69
aI38
aa(lp51
S'2016-11-05'
p52
aI28
aI78
aI47
aI27
aa(lp53
S'2016-12-28'
p54
aI50
aI150
aI106
aI51
aa(lp55
S'2016-12-29'
p56
aI37
aI163
aI83
aI58
aa(lp57
S'2017-02-15'
p58
aI38
aI162
aI86
aI48
aa(lp59
S'2016-12-13'
p60
aI35
aI165
aI74
aI39
aa(lp61
S'2017-01-16'
p62
aI54
aI146
aI98
aI55
aa(lp63
S'2017-01-17'
p64
aI45
aI155
aI83
aI69
aa(lp65
S'2017-01-14'
p66
aI48
aI135
aI87
aI44
aa(lp67
S'2017-03-08'
p68
aI45
aI155
aI80
aI59
aa(lp69
S'2017-01-12'
p70
aI41
aI159
aI78
aI62
aa(lp71
S'2017-01-13'
p72
aI52
aI185
aI114
aI50
aa(lp73
S'2017-01-10'
p74
aI51
aI149
aI106
aI49
aa(lp75
S'2017-01-11'
p76
aI44
aI156
aI81
aI47
aa(lp77
S'2016-11-12'
p78
aI49
aI95
aI65
aI35
aa(lp79
S'2016-11-13'
p80
aI30
aI99
aI65
aI22
aa(lp81
S'2016-11-10'
p82
aI40
aI160
aI90
aI30
aa(lp83
S'2016-11-11'
p84
aI45
aI195
aI99
aI82
aa(lp85
S'2016-11-16'
p86
aI27
aI173
aI81
aI63
aa(lp87
S'2016-11-17'
p88
aI35
aI165
aI95
aI37
aa(lp89
S'2017-01-18'
p90
aI32
aI168
aI85
aI69
aa(lp91
S'2017-01-19'
p92
aI30
aI170
aI72
aI79
aa(lp93
S'2016-12-02'
p94
aI28
aI207
aI72
aI78
aa(lp95
S'2016-12-12'
p96
aI30
aI170
aI76
aI56
aa(lp97
S'2017-04-20'
p98
aI50
aI150
aI71
aI45
aa(lp99
S'2017-03-02'
p100
aI40
aI160
aI85
aI52
aa(lp101
S'2017-03-01'
p102
aI48
aI152
aI113
aI31
aa(lp103
S'2016-12-03'
p104
aI48
aI82
aI75
aI33
aa(lp105
S'2017-04-06'
p106
aI39
aI161
aI81
aI45
aa(lp107
S'2017-04-07'
p108
aI53
aI176
aI105
aI50
aa(lp109
S'2017-04-04'
p110
aI27
aI173
aI81
aI48
aa(lp111
S'2017-03-22'
p112
aI39
aI161
aI71
aI71
aa(lp113
S'2017-04-02'
p114
aI80
aI120
aI105
aI38
aa(lp115
S'2017-04-03'
p116
aI67
aI133
aI105
aI40
aa(lp117
S'2017-03-27'
p118
aI52
aI148
aI97
aI40
aa(lp119
S'2017-04-01'
p120
aI82
aI86
aI102
aI22
aa(lp121
S'2017-03-29'
p122
aI35
aI165
aI77
aI38
aa(lp123
S'2017-03-28'
p124
aI40
aI160
aI96
aI37
aa(lp125
S'2016-12-11'
p126
aI26
aI97
aI69
aI15
aa(lp127
S'2016-11-18'
p128
aI50
aI180
aI126
aI68
aa(lp129
S'2017-04-08'
p130
aI61
aI110
aI91
aI32
aa(lp131
S'2017-04-09'
p132
aI67
aI133
aI105
aI41
aa(lp133
S'2017-01-05'
p134
aI24
aI176
aI72
aI64
aa(lp135
S'2017-01-04'
p136
aI33
aI167
aI84
aI29
aa(lp137
S'2017-01-07'
p138
aI59
aI90
aI79
aI30
aa(lp139
S'2017-01-15'
p140
aI46
aI102
aI73
aI33
aa(lp141
S'2017-01-01'
p142
aI48
aI102
aI66
aI35
aa(lp143
S'2017-02-19'
p144
aI55
aI112
aI82
aI27
aa(lp145
S'2017-01-03'
p146
aI49
aI151
aI85
aI37
aa(lp147
S'2017-01-02'
p148
aI65
aI131
aI99
aI39
aa(lp149
S'2017-02-18'
p150
aI68
aI144
aI108
aI38
aa(lp151
S'2017-01-09'
p152
aI45
aI155
aI81
aI66
aa(lp153
S'2017-01-08'
p154
aI35
aI93
aI51
aI32
aa(lp155
S'2016-11-07'
p156
aI38
aI162
aI75
aI31
aa(lp157
S'2016-11-06'
p158
aI67
aI112
aI81
aI40
aa(lp159
S'2016-12-05'
p160
aI35
aI165
aI76
aI22
aa(lp161
S'2017-02-01'
p162
aI33
aI167
aI108
aI39
aa(lp163
S'2017-02-02'
p164
aI40
aI160
aI86
aI41
aa(lp165
S'2017-02-03'
p166
aI61
aI182
aI120
aI37
aa(lp167
S'2017-02-04'
p168
aI54
aI129
aI92
aI44
aa(lp169
S'2017-02-05'
p170
aI61
aI113
aI73
aI36
aa(lp171
S'2017-02-06'
p172
aI57
aI143
aI76
aI55
aa(lp173
S'2017-02-07'
p174
aI39
aI161
aI102
aI51
aa(lp175
S'2017-02-08'
p176
aI45
aI155
aI81
aI49
aa(lp177
S'2017-02-09'
p178
aI41
aI159
aI99
aI32
aa(lp179
S'2017-03-14'
p180
aI29
aI171
aI72
aI71
aa(lp181
S'2017-03-15'
p182
aI37
aI163
aI77
aI42
aa(lp183
S'2017-04-17'
p184
aI62
aI138
aI84
aI24
aa(lp185
S'2017-03-17'
p186
aI61
aI165
aI118
aI43
aa(lp187
S'2017-03-10'
p188
aI57
aI147
aI109
aI40
aa(lp189
S'2017-03-11'
p190
aI56
aI140
aI91
aI46
aa(lp191
S'2017-04-13'
p192
aI38
aI162
aI53
aI83
aa(lp193
S'2017-03-13'
p194
aI47
aI153
aI115
aI37
aa(lp195
S'2017-01-30'
p196
aI38
aI162
aI79
aI57
aa(lp197
S'2017-01-31'
p198
aI36
aI164
aI95
aI46
aa(lp199
S'2017-03-18'
p200
aI70
aI111
aI108
aI42
aa(lp201
S'2017-03-19'
p202
aI53
aI140
aI97
aI33
aa(lp203
S'2016-11-19'
p204
aI55
aI128
aI102
aI45
aa(lp205
S'2016-11-14'
p206
aI24
aI176
aI65
aI58
aa(lp207
S'2016-11-15'
p208
aI43
aI157
aI66
aI42
aa(lp209
S'2016-11-30'
p210
aI42
aI158
aI99
aI47
aa(lp211
S'2016-12-16'
p212
aI46
aI180
aI84
aI52
aa(lp213
S'2017-02-17'
p214
aI66
aI155
aI110
aI60
aa(lp215
S'2017-02-16'
p216
aI42
aI158
aI99
aI55
aa(lp217
S'2017-03-09'
p218
aI41
aI159
aI71
aI66
aa(lp219
S'2017-02-14'
p220
aI40
aI160
aI73
aI49
aa(lp221
S'2017-02-13'
p222
aI51
aI149
aI103
aI36
aa(lp223
S'2017-02-12'
p224
aI61
aI139
aI114
aI34
aa(lp225
S'2017-02-11'
p226
aI65
aI135
aI89
aI61
aa(lp227
S'2017-02-10'
p228
aI54
aI146
aI107
aI34
aa(lp229
S'2017-03-03'
p230
aI41
aI160
aI87
aI34
aa(lp231
S'2017-04-21'
p232
aI65
aI165
aI83
aI67
aa(lp233
S'2017-04-22'
p234
aI48
aI79
aI72
aI23
aa(lp235
S'2016-12-10'
p236
aI61
aI87
aI78
aI32
aa(lp237
S'2017-03-07'
p238
aI42
aI158
aI77
aI56
aa(lp239
S'2017-03-06'
p240
aI44
aI156
aI89
aI60
aa(lp241
S'2017-03-05'
p242
aI58
aI106
aI89
aI31
aa(lp243
S'2017-03-04'
p244
aI72
aI163
aI122
aI56
aa(lp245
S'2016-12-15'
p246
aI28
aI172
aI81
aI36
aa(lp247
S'2017-01-29'
p248
aI48
aI152
aI79
aI24
aa(lp249
S'2017-01-28'
p250
aI51
aI104
aI80
aI38
aa(lp251
S'2017-01-27'
p252
aI78
aI159
aI125
aI51
aa(lp253
S'2017-01-26'
p254
aI40
aI160
aI76
aI56
aa(lp255
S'2017-01-25'
p256
aI80
aI120
aI100
aI32
aa(lp257
S'2017-01-24'
p258
aI42
aI158
aI95
aI25
aa(lp259
S'2017-01-23'
p260
aI53
aI147
aI93
aI55
aa(lp261
S'2017-01-22'
p262
aI52
aI102
aI83
aI30
aa(lp263
S'2017-01-21'
p264
aI62
aI116
aI90
aI40
aa(lp265
S'2017-01-20'
p266
aI58
aI186
aI122
aI45
aa(lp267
S'2016-11-23'
p268
aI64
aI136
aI95
aI43
aa(lp269
S'2016-11-22'
p270
aI61
aI139
aI102
aI32
aa(lp271
S'2016-11-21'
p272
aI36
aI164
aI100
aI34
aa(lp273
S'2016-11-20'
p274
aI26
aI83
aI51
aI15
aa(lp275
S'2016-11-27'
p276
aI35
aI104
aI79
aI26
aa(lp277
S'2016-12-08'
p278
aI33
aI167
aI106
aI41
aa(lp279
S'2016-11-25'
p280
aI47
aI190
aI107
aI35
aa(lp281
S'2016-11-24'
p282
aI31
aI169
aI114
aI36
aa(lp283
S'2016-12-30'
p284
aI37
aI194
aI90
aI71
aa(lp285
S'2016-11-29'
p286
aI47
aI153
aI69
aI54
aa(lp287
S'2016-11-28'
p288
aI35
aI165
aI71
aI63
aa(lp289
S'2016-11-26'
p290
aI54
aI93
aI72
aI46
aa(lp291
S'2016-12-14'
p292
aI26
aI174
aI89
aI64
aa(lp293
S'2017-04-15'
p294
aI71
aI97
aI87
aI27
aa(lp295
S'2017-04-14'
p296
aI89
aI139
aI105
aI66
aa(lp297
S'2017-03-16'
p298
aI44
aI156
aI94
aI38
aa(lp299
S'2017-04-16'
p300
aI64
aI118
aI84
aI36
aa(lp301
S'2017-04-11'
p302
aI41
aI159
aI72
aI58
aa(lp303
S'2017-04-10'
p304
aI49
aI151
aI92
aI57
aa(lp305
S'2017-03-12'
p306
aI72
aI128
aI101
aI45
aa(lp307
S'2016-12-01'
p308
aI33
aI167
aI70
aI58
aa(lp309
S'2017-04-12'
p310
aI45
aI155
aI85
aI71
aa(lp311
S'2016-11-08'
p312
aI50
aI150
aI85
aI28
aa(lp313
S'2016-12-17'
p314
aI63
aI129
aI85
aI67
aa(lp315
S'2017-04-19'
p316
aI36
aI164
aI76
aI54
aa(lp317
S'2017-04-18'
p318
aI41
aI159
aI63
aI82
aa(lp319
S'2016-12-19'
p320
aI34
aI166
aI78
aI48
aa(lp321
S'2017-03-21'
p322
aI41
aI159
aI72
aI74
aa(lp323
S'2017-03-20'
p324
aI51
aI149
aI89
aI53
aa(lp325
S'2016-12-09'
p326
aI41
aI190
aI110
aI43
aa(lp327
S'2017-03-23'
p328
aI26
aI174
aI99
aI46
aa(lp329
S'2017-04-05'
p330
aI33
aI167
aI82
aI61
aa(lp331
S'2016-12-18'
p332
aI37
aI122
aI70
aI42
aa(lp333
S'2017-03-25'
p334
aI70
aI111
aI102
aI46
aa(lp335
S'2017-03-24'
p336
aI50
aI178
aI100
aI69
aa(lp337
S'2017-03-26'
p338
aI71
aI105
aI99
aI38
aa.