(lp0
(lp1
S'2016-08-30'
p2
aF0.19047619047619047
aF1.2380952380952381
aa(lp3
S'2016-08-31'
p4
aF0.19047619047619047
aF0.6888888888888889
aa(lp5
S'2017-04-19'
p6
aF0.21951219512195122
aF1.4074074074074074
aa(lp7
S'2016-09-08'
p8
aF0.1111111111111111
aF1.0405405405405406
aa(lp9
S'2016-09-09'
p10
aF0.1881720430107527
aF0.819047619047619
aa(lp11
S'2016-09-04'
p12
aF0.21951219512195122
aF3.6
aa(lp13
S'2016-09-05'
p14
aF0.19760479041916168
aF1.359375
aa(lp15
S'2016-09-06'
p16
aF0.19047619047619047
aF1.0169491525423728
aa(lp17
S'2016-09-07'
p18
aF0.0989010989010989
aF1.9411764705882353
aa(lp19
S'2016-09-01'
p20
aF0.25
aF1.2586206896551724
aa(lp21
S'2016-09-02'
p22
aF0.14507772020725387
aF4.076923076923077
aa(lp23
S'2016-09-03'
p24
aF0.23404255319148937
aF3.9444444444444446
aa(lp25
S'2016-12-04'
p26
aF0.44554455445544555
aF3.6666666666666665
aa(lp27
S'2016-12-05'
p28
aF0.21212121212121213
aF3.4545454545454546
aa(lp29
S'2016-12-06'
p30
aF0.17647058823529413
aF1.8888888888888888
aa(lp31
S'2016-12-07'
p32
aF0.2987012987012987
aF3.923076923076923
aa(lp33
S'2017-04-11'
p34
aF0.2578616352201258
aF1.2413793103448276
aa(lp35
S'2017-04-10'
p36
aF0.32450331125827814
aF1.6140350877192982
aa(lp37
S'2016-12-02'
p38
aF0.13526570048309178
aF0.9230769230769231
aa(lp39
S'2016-12-03'
p40
aF0.5853658536585366
aF2.272727272727273
aa(lp41
S'2017-01-30'
p42
aF0.2345679012345679
aF1.3859649122807018
aa(lp43
S'2017-01-31'
p44
aF0.21951219512195122
aF2.0652173913043477
aa(lp45
S'2016-12-08'
p46
aF0.19760479041916168
aF2.5853658536585367
aa(lp47
S'2017-04-18'
p48
aF0.2578616352201258
aF0.7682926829268293
aa(lp49
S'2017-03-09'
p50
aF0.2578616352201258
aF1.0757575757575757
aa(lp51
S'2017-03-08'
p52
aF0.2903225806451613
aF1.3559322033898304
aa(lp53
S'2016-05-31'
p54
aF0.2422360248447205
aF0.6091954022988506
aa(lp55
S'2016-05-30'
p56
aF0.16279069767441862
aF1.7058823529411764
aa(lp57
S'2017-03-03'
p58
aF0.25625
aF2.5588235294117645
aa(lp59
S'2017-03-02'
p60
aF0.25
aF1.6346153846153846
aa(lp61
S'2017-03-01'
p62
aF0.3157894736842105
aF3.6451612903225805
aa(lp63
S'2017-03-07'
p64
aF0.26582278481012656
aF1.375
aa(lp65
S'2017-03-06'
p66
aF0.28205128205128205
aF1.4833333333333334
aa(lp67
S'2017-03-05'
p68
aF0.5471698113207547
aF2.870967741935484
aa(lp69
S'2017-03-04'
p70
aF0.44171779141104295
aF2.1785714285714284
aa(lp71
S'2016-07-17'
p72
aF0.23684210526315788
aF2.111111111111111
aa(lp73
S'2016-07-16'
p74
aF0.3763440860215054
aF3.588235294117647
aa(lp75
S'2016-11-23'
p76
aF0.47058823529411764
aF2.2093023255813953
aa(lp77
S'2016-11-22'
p78
aF0.43884892086330934
aF3.1875
aa(lp79
S'2016-11-21'
p80
aF0.21951219512195122
aF2.9411764705882355
aa(lp81
S'2016-11-20'
p82
aF0.3132530120481928
aF3.4
aa(lp83
S'2016-11-27'
p84
aF0.33653846153846156
aF3.0384615384615383
aa(lp85
S'2016-11-26'
p86
aF0.5806451612903226
aF1.565217391304348
aa(lp87
S'2016-11-25'
p88
aF0.24736842105263157
aF3.057142857142857
aa(lp89
S'2016-07-18'
p90
aF0.15606936416184972
aF1.4035087719298245
aa(lp91
S'2016-11-29'
p92
aF0.30718954248366015
aF1.2777777777777777
aa(lp93
S'2016-11-28'
p94
aF0.21212121212121213
aF1.126984126984127
aa(lp95
S'2017-03-17'
p96
aF0.3696969696969697
aF2.744186046511628
aa(lp97
S'2016-05-10'
p98
aF0.1111111111111111
aF2.085714285714286
aa(lp99
S'2016-10-31'
p100
aF0.2578616352201258
aF1.0133333333333334
aa(lp101
S'2016-10-30'
p102
aF0.25806451612903225
aF3.15
aa(lp103
S'2017-04-06'
p104
aF0.2422360248447205
aF1.8
aa(lp105
S'2016-06-27'
p106
aF0.11731843575418995
aF0.46788990825688076
aa(lp107
S'2016-06-26'
p108
aF0.12403100775193798
aF1.0212765957446808
aa(lp109
S'2016-06-25'
p110
aF0.2085889570552147
aF2.0714285714285716
aa(lp111
S'2016-06-24'
p112
aF0.13106796116504854
aF0.8256880733944955
aa(lp113
S'2016-06-23'
p114
aF0.1695906432748538
aF2.606060606060606
aa(lp115
S'2016-06-22'
p116
aF0.10497237569060773
aF1.0289855072463767
aa(lp117
S'2016-06-21'
p118
aF0.17647058823529413
aF2.4166666666666665
aa(lp119
S'2016-06-20'
p120
aF0.22699386503067484
aF3.142857142857143
aa(lp121
S'2016-06-29'
p122
aF0.11731843575418995
aF3.6923076923076925
aa(lp123
S'2016-06-28'
p124
aF0.11731843575418995
aF2.1555555555555554
aa(lp125
S'2016-12-30'
p126
aF0.19072164948453607
aF1.267605633802817
aa(lp127
S'2017-03-30'
p128
aF0.36054421768707484
aF2.5641025641025643
aa(lp129
S'2017-03-31'
p130
aF0.25824175824175827
aF1.5
aa(lp131
S'2016-12-19'
p132
aF0.20481927710843373
aF1.625
aa(lp133
S'2016-11-18'
p134
aF0.2777777777777778
aF1.8529411764705883
aa(lp135
S'2016-11-19'
p136
aF0.4296875
aF2.2666666666666666
aa(lp137
S'2016-11-12'
p138
aF0.5157894736842106
aF1.8571428571428572
aa(lp139
S'2016-11-13'
p140
aF0.30303030303030304
aF2.9545454545454546
aa(lp141
S'2016-11-10'
p142
aF0.25
aF3.0
aa(lp143
S'2016-07-30'
p144
aF0.375
aF2.25
aa(lp145
S'2016-11-16'
p146
aF0.15606936416184972
aF1.2857142857142858
aa(lp147
S'2016-11-17'
p148
aF0.21212121212121213
aF2.5675675675675675
aa(lp149
S'2016-11-14'
p150
aF0.13636363636363635
aF1.1206896551724137
aa(lp151
S'2016-11-15'
p152
aF0.27388535031847133
aF1.5714285714285714
aa(lp153
S'2017-04-20'
p154
aF0.3333333333333333
aF1.5777777777777777
aa(lp155
S'2017-04-21'
p156
aF0.3939393939393939
aF1.2388059701492538
aa(lp157
S'2017-04-22'
p158
aF0.6075949367088608
aF3.130434782608696
aa(lp159
S'2016-09-18'
p160
aF0.22666666666666666
aF3.1666666666666665
aa(lp161
S'2016-08-29'
p162
aF0.20481927710843373
aF1.9473684210526316
aa(lp163
S'2016-08-28'
p164
aF0.21428571428571427
aF2.1481481481481484
aa(lp165
S'2016-08-25'
p166
aF0.1111111111111111
aF1.2923076923076924
aa(lp167
S'2016-08-24'
p168
aF0.21212121212121213
aF1.0666666666666667
aa(lp169
S'2016-08-27'
p170
aF0.39655172413793105
aF1.15
aa(lp171
S'2016-08-26'
p172
aF0.18421052631578946
aF2.0
aa(lp173
S'2016-08-21'
p174
aF0.24050632911392406
aF2.5294117647058822
aa(lp175
S'2016-08-20'
p176
aF0.3048780487804878
aF3.2
aa(lp177
S'2016-08-23'
p178
aF0.27388535031847133
aF2.25
aa(lp179
S'2016-08-22'
p180
aF0.21212121212121213
aF0.8026315789473685
aa(lp181
S'2017-02-01'
p182
aF0.19760479041916168
aF2.769230769230769
aa(lp183
S'2017-02-02'
p184
aF0.25
aF2.097560975609756
aa(lp185
S'2017-02-03'
p186
aF0.33516483516483514
aF3.2432432432432434
aa(lp187
S'2017-02-04'
p188
aF0.4186046511627907
aF2.090909090909091
aa(lp189
S'2017-02-05'
p190
aF0.5398230088495575
aF2.0277777777777777
aa(lp191
S'2017-02-06'
p192
aF0.3986013986013986
aF1.3818181818181818
aa(lp193
S'2017-02-07'
p194
aF0.2422360248447205
aF2.0
aa(lp195
S'2017-02-08'
p196
aF0.2903225806451613
aF1.653061224489796
aa(lp197
S'2017-02-09'
p198
aF0.2578616352201258
aF3.09375
aa(lp199
S'2016-04-30'
p200
aF0.4421052631578947
aF2.3870967741935485
aa(lp201
S'2016-10-08'
p202
aF0.6037735849056604
aF2.4324324324324325
aa(lp203
S'2016-10-09'
p204
aF0.32954545454545453
aF3.090909090909091
aa(lp205
S'2016-10-06'
p206
aF0.15606936416184972
aF1.1944444444444444
aa(lp207
S'2016-10-07'
p208
aF0.28484848484848485
aF1.1125
aa(lp209
S'2016-10-04'
p210
aF0.3333333333333333
aF1.8518518518518519
aa(lp211
S'2016-10-05'
p212
aF0.28205128205128205
aF1.4509803921568627
aa(lp213
S'2016-10-02'
p214
aF0.5846153846153846
aF4.0588235294117645
aa(lp215
S'2016-10-03'
p216
aF0.22699386503067484
aF1.9387755102040816
aa(lp217
S'2016-10-01'
p218
aF0.7901234567901234
aF4.318181818181818
aa(lp219
S'2016-09-13'
p220
aF0.25
aF0.6979166666666666
aa(lp221
S'2016-09-12'
p222
aF0.1834319526627219
aF2.111111111111111
aa(lp223
S'2016-09-11'
p224
aF0.7101449275362319
aF3.5652173913043477
aa(lp225
S'2016-09-10'
p226
aF0.35051546391752575
aF4.0476190476190474
aa(lp227
S'2016-09-17'
p228
aF0.38961038961038963
aF2.076923076923077
aa(lp229
S'2016-09-16'
p230
aF0.1891891891891892
aF1.294871794871795
aa(lp231
S'2016-09-15'
p232
aF0.13636363636363635
aF3.6666666666666665
aa(lp233
S'2016-09-14'
p234
aF0.19760479041916168
aF1.0769230769230769
aa(lp235
S'2016-12-13'
p236
aF0.21212121212121213
aF1.8974358974358974
aa(lp237
S'2016-12-12'
p238
aF0.17647058823529413
aF1.3571428571428572
aa(lp239
S'2016-12-11'
p240
aF0.26804123711340205
aF4.6
aa(lp241
S'2016-12-10'
p242
aF0.7011494252873564
aF2.4375
aa(lp243
S'2016-12-17'
p244
aF0.4883720930232558
aF1.2686567164179106
aa(lp245
S'2016-12-16'
p246
aF0.25555555555555554
aF1.6153846153846154
aa(lp247
S'2016-12-15'
p248
aF0.16279069767441862
aF2.25
aa(lp249
S'2016-12-14'
p250
aF0.14942528735632185
aF1.390625
aa(lp251
S'2017-01-29'
p252
aF0.3157894736842105
aF3.2916666666666665
aa(lp253
S'2017-01-28'
p254
aF0.49038461538461536
aF2.1052631578947367
aa(lp255
S'2017-01-27'
p256
aF0.49056603773584906
aF2.450980392156863
aa(lp257
S'2017-01-26'
p258
aF0.25
aF1.3571428571428572
aa(lp259
S'2017-01-25'
p260
aF0.6666666666666666
aF3.125
aa(lp261
S'2017-01-24'
p262
aF0.26582278481012656
aF3.8
aa(lp263
S'2017-01-23'
p264
aF0.36054421768707484
aF1.690909090909091
aa(lp265
S'2017-01-22'
p266
aF0.5098039215686274
aF2.7666666666666666
aa(lp267
S'2017-01-21'
p268
aF0.5344827586206896
aF2.25
aa(lp269
S'2017-01-20'
p270
aF0.3118279569892473
aF2.7111111111111112
aa(lp271
S'2016-07-02'
p272
aF0.22772277227722773
aF3.3157894736842106
aa(lp273
S'2016-07-03'
p274
aF0.2111111111111111
aF1.84
aa(lp275
S'2016-07-01'
p276
aF0.12953367875647667
aF3.081081081081081
aa(lp277
S'2016-07-06'
p278
aF0.11731843575418995
aF1.265625
aa(lp279
S'2016-07-07'
p280
aF0.14942528735632185
aF2.022727272727273
aa(lp281
S'2016-07-04'
p282
aF0.16279069767441862
aF1.2833333333333334
aa(lp283
S'2016-07-05'
p284
aF0.0989010989010989
aF0.6666666666666666
aa(lp285
S'2016-05-01'
p286
aF0.39285714285714285
aF2.269230769230769
aa(lp287
S'2016-07-08'
p288
aF0.16939890710382513
aF5.571428571428571
aa(lp289
S'2016-07-09'
p290
aF0.38235294117647056
aF4.416666666666667
aa(lp291
S'2016-05-04'
p292
aF0.12994350282485875
aF0.6736842105263158
aa(lp293
S'2016-05-05'
p294
aF0.21951219512195122
aF1.5
aa(lp295
S'2016-05-06'
p296
aF0.18461538461538463
aF1.3421052631578947
aa(lp297
S'2016-05-07'
p298
aF0.4224137931034483
aF2.4186046511627906
aa(lp299
S'2016-06-18'
p300
aF0.4
aF3.6
aa(lp301
S'2016-06-19'
p302
aF0.37333333333333335
aF3.0
aa(lp303
S'2016-06-16'
p304
aF0.15606936416184972
aF1.015625
aa(lp305
S'2016-06-17'
p306
aF0.17297297297297298
aF2.2
aa(lp307
S'2016-06-14'
p308
aF0.2903225806451613
aF0.5333333333333333
aa(lp309
S'2016-06-15'
p310
aF0.13636363636363635
aF2.097560975609756
aa(lp311
S'2016-06-12'
p312
aF0.45
aF2.7
aa(lp313
S'2016-06-13'
p314
aF0.14285714285714285
aF0.5913978494623656
aa(lp315
S'2016-06-10'
p316
aF0.20809248554913296
aF0.7157894736842105
aa(lp317
S'2016-06-11'
p318
aF0.3950617283950617
aF1.5714285714285714
aa(lp319
S'2016-05-08'
p320
aF0.34782608695652173
aF2.727272727272727
aa(lp321
S'2016-05-09'
p322
aF0.11731843575418995
aF0.8227848101265823
aa(lp323
S'2016-05-02'
p324
aF0.2578616352201258
aF1.309090909090909
aa(lp325
S'2016-05-03'
p326
aF0.2903225806451613
aF0.6987951807228916
aa(lp327
S'2017-03-23'
p328
aF0.14942528735632185
aF2.152173913043478
aa(lp329
S'2016-12-18'
p330
aF0.30327868852459017
aF1.6666666666666667
aa(lp331
S'2016-09-28'
p332
aF0.21212121212121213
aF1.9285714285714286
aa(lp333
S'2016-09-29'
p334
aF0.13636363636363635
aF1.0684931506849316
aa(lp335
S'2016-09-22'
p336
aF0.19760479041916168
aF2.806451612903226
aa(lp337
S'2016-09-23'
p338
aF0.2874251497005988
aF0.9753086419753086
aa(lp339
S'2016-09-20'
p340
aF0.2422360248447205
aF1.1818181818181819
aa(lp341
S'2016-09-21'
p342
aF0.16279069767441862
aF3.142857142857143
aa(lp343
S'2016-09-26'
p344
aF0.20481927710843373
aF0.7349397590361446
aa(lp345
S'2016-09-27'
p346
aF0.21951219512195122
aF1.489795918367347
aa(lp347
S'2016-09-24'
p348
aF0.5
aF2.533333333333333
aa(lp349
S'2016-09-25'
p350
aF0.2875
aF4.214285714285714
aa(lp351
S'2016-12-22'
p352
aF0.20481927710843373
aF1.1176470588235294
aa(lp353
S'2016-12-23'
p354
aF0.15384615384615385
aF1.3333333333333333
aa(lp355
S'2016-12-20'
p356
aF0.2903225806451613
aF1.7708333333333333
aa(lp357
S'2016-12-21'
p358
aF0.26582278481012656
aF1.2222222222222223
aa(lp359
S'2016-12-26'
p360
aF0.37168141592920356
aF2.225806451612903
aa(lp361
S'2016-12-27'
p362
aF0.3157894736842105
aF2.0277777777777777
aa(lp363
S'2016-12-24'
p364
aF0.6666666666666666
aF0.5862068965517241
aa(lp365
S'2016-12-25'
p366
aF0.24166666666666667
aF1.8157894736842106
aa(lp367
S'2016-12-28'
p368
aF0.3333333333333333
aF2.0784313725490198
aa(lp369
S'2016-12-29'
p370
aF0.22699386503067484
aF1.4310344827586208
aa(lp371
S'2017-01-16'
p372
aF0.3698630136986301
aF1.7818181818181817
aa(lp373
S'2017-01-17'
p374
aF0.2903225806451613
aF1.2028985507246377
aa(lp375
S'2017-01-14'
p376
aF0.35555555555555557
aF1.9772727272727273
aa(lp377
S'2017-01-15'
p378
aF0.45098039215686275
aF2.212121212121212
aa(lp379
S'2017-01-12'
p380
aF0.2578616352201258
aF1.2580645161290323
aa(lp381
S'2017-01-13'
p382
aF0.2810810810810811
aF2.28
aa(lp383
S'2017-01-10'
p384
aF0.3422818791946309
aF2.163265306122449
aa(lp385
S'2017-01-11'
p386
aF0.28205128205128205
aF1.7234042553191489
aa(lp387
S'2017-01-18'
p388
aF0.19047619047619047
aF1.2318840579710144
aa(lp389
S'2017-01-19'
p390
aF0.17647058823529413
aF0.9113924050632911
aa(lp391
S'2017-03-21'
p392
aF0.2578616352201258
aF0.972972972972973
aa(lp393
S'2017-03-20'
p394
aF0.3422818791946309
aF1.679245283018868
aa(lp395
S'2016-07-19'
p396
aF0.21951219512195122
aF0.9571428571428572
aa(lp397
S'2017-03-22'
p398
aF0.2422360248447205
aF1.0
aa(lp399
S'2017-03-25'
p400
aF0.6306306306306306
aF2.217391304347826
aa(lp401
S'2017-03-24'
p402
aF0.2808988764044944
aF1.4492753623188406
aa(lp403
S'2017-03-27'
p404
aF0.35135135135135137
aF2.425
aa(lp405
S'2017-03-26'
p406
aF0.6761904761904762
aF2.6052631578947367
aa(lp407
S'2017-03-29'
p408
aF0.21212121212121213
aF2.026315789473684
aa(lp409
S'2017-03-28'
p410
aF0.25
aF2.5945945945945947
aa(lp411
S'2016-11-09'
p412
aF0.19047619047619047
aF3.1481481481481484
aa(lp413
S'2016-11-08'
p414
aF0.3333333333333333
aF3.0357142857142856
aa(lp415
S'2016-11-01'
p416
aF0.1834319526627219
aF0.5268817204301075
aa(lp417
S'2016-11-03'
p418
aF0.19047619047619047
aF0.9404761904761905
aa(lp419
S'2016-11-02'
p420
aF0.21212121212121213
aF0.6904761904761905
aa(lp421
S'2016-11-05'
p422
aF0.2966101694915254
aF2.054054054054054
aa(lp423
S'2016-11-04'
p424
aF0.3939393939393939
aF1.4225352112676057
aa(lp425
S'2016-11-07'
p426
aF0.2345679012345679
aF2.4193548387096775
aa(lp427
S'2016-11-06'
p428
aF0.5982142857142857
aF2.025
aa(lp429
S'2016-08-10'
p430
aF0.12359550561797752
aF1.2857142857142858
aa(lp431
S'2016-08-11'
p432
aF0.22699386503067484
aF3.096774193548387
aa(lp433
S'2016-08-12'
p434
aF0.17553191489361702
aF1.5172413793103448
aa(lp435
S'2016-08-13'
p436
aF0.3880597014925373
aF3.375
aa(lp437
S'2016-08-14'
p438
aF0.3424657534246575
aF3.1875
aa(lp439
S'2016-08-15'
p440
aF0.16279069767441862
aF2.5405405405405403
aa(lp441
S'2016-08-16'
p442
aF0.14285714285714285
aF0.9014084507042254
aa(lp443
S'2016-08-17'
p444
aF0.13636363636363635
aF0.9206349206349206
aa(lp445
S'2016-08-18'
p446
aF0.2578616352201258
aF2.0681818181818183
aa(lp447
S'2016-08-19'
p448
aF0.17204301075268819
aF1.1466666666666667
aa(lp449
S'2017-02-17'
p450
aF0.4258064516129032
aF1.8333333333333333
aa(lp451
S'2017-02-16'
p452
aF0.26582278481012656
aF1.8
aa(lp453
S'2017-02-15'
p454
aF0.2345679012345679
aF1.7916666666666667
aa(lp455
S'2017-02-14'
p456
aF0.25
aF1.489795918367347
aa(lp457
S'2017-02-13'
p458
aF0.3422818791946309
aF2.861111111111111
aa(lp459
S'2017-02-12'
p460
aF0.43884892086330934
aF3.3529411764705883
aa(lp461
S'2017-02-11'
p462
aF0.48148148148148145
aF1.459016393442623
aa(lp463
S'2017-02-10'
p464
aF0.3698630136986301
aF3.1470588235294117
aa(lp465
S'2016-04-21'
p466
aF0.0989010989010989
aF1.0
aa(lp467
S'2016-04-20'
p468
aF0.12994350282485875
aF2.3076923076923075
aa(lp469
S'2016-04-23'
p470
aF0.3838383838383838
aF2.1818181818181817
aa(lp471
S'2016-04-22'
p472
aF0.19170984455958548
aF1.3333333333333333
aa(lp473
S'2016-04-25'
p474
aF0.1111111111111111
aF0.6627906976744186
aa(lp475
S'2016-04-24'
p476
aF0.32954545454545453
aF3.111111111111111
aa(lp477
S'2017-02-19'
p478
aF0.49107142857142855
aF3.037037037037037
aa(lp479
S'2017-02-18'
p480
aF0.4722222222222222
aF2.8421052631578947
aa(lp481
S'2016-09-19'
p482
aF0.14942528735632185
aF1.9534883720930232
aa(lp483
S'2016-10-19'
p484
aF0.27388535031847133
aF2.108108108108108
aa(lp485
S'2016-10-18'
p486
aF0.25
aF3.7083333333333335
aa(lp487
S'2016-10-15'
p488
aF0.4019607843137255
aF1.6744186046511629
aa(lp489
S'2016-10-14'
p490
aF0.26373626373626374
aF2.625
aa(lp491
S'2016-10-17'
p492
aF0.28205128205128205
aF1.21875
aa(lp493
S'2016-10-16'
p494
aF0.22105263157894736
aF3.4210526315789473
aa(lp495
S'2016-10-11'
p496
aF0.17647058823529413
aF0.8589743589743589
aa(lp497
S'2016-10-10'
p498
aF0.28205128205128205
aF4.578947368421052
aa(lp499
S'2016-10-13'
p500
aF0.2422360248447205
aF1.1917808219178083
aa(lp501
S'2016-10-12'
p502
aF0.21951219512195122
aF1.2459016393442623
aa(lp503
S'2017-04-15'
p504
aF0.7319587628865979
aF3.2222222222222223
aa(lp505
S'2017-04-14'
p506
aF0.6402877697841727
aF1.5909090909090908
aa(lp507
S'2017-04-17'
p508
aF0.4492753623188406
aF3.5
aa(lp509
S'2017-04-16'
p510
aF0.5423728813559322
aF2.3333333333333335
aa(lp511
S'2016-12-01'
p512
aF0.19760479041916168
aF1.206896551724138
aa(lp513
S'2017-04-13'
p514
aF0.2345679012345679
aF0.6385542168674698
aa(lp515
S'2017-04-12'
p516
aF0.2903225806451613
aF1.1971830985915493
aa(lp517
S'2016-07-11'
p518
aF0.26582278481012656
aF2.7096774193548385
aa(lp519
S'2016-07-10'
p520
aF0.325
aF2.789473684210526
aa(lp521
S'2016-07-13'
p522
aF0.1695906432748538
aF1.0857142857142856
aa(lp523
S'2016-07-12'
p524
aF0.1695906432748538
aF2.125
aa(lp525
S'2016-07-15'
p526
aF0.21666666666666667
aF1.4848484848484849
aa(lp527
S'2016-07-14'
p528
aF0.16279069767441862
aF3.3125
aa(lp529
S'2016-05-19'
p530
aF0.10497237569060773
aF1.619047619047619
aa(lp531
S'2016-05-18'
p532
aF0.10497237569060773
aF1.35
aa(lp533
S'2016-05-17'
p534
aF0.11731843575418995
aF0.96
aa(lp535
S'2016-05-16'
p536
aF0.16279069767441862
aF1.6444444444444444
aa(lp537
S'2016-05-15'
p538
aF0.2875
aF1.5172413793103448
aa(lp539
S'2016-05-14'
p540
aF0.345679012345679
aF1.0731707317073171
aa(lp541
S'2016-05-13'
p542
aF0.13989637305699482
aF1.5147058823529411
aa(lp543
S'2016-05-12'
p544
aF0.20481927710843373
aF1.0149253731343284
aa(lp545
S'2016-05-11'
p546
aF0.20481927710843373
aF1.0379746835443038
aa(lp547
S'2016-12-09'
p548
aF0.21578947368421053
aF2.558139534883721
aa(lp549
S'2016-06-09'
p550
aF0.14285714285714285
aF0.7209302325581395
aa(lp551
S'2016-06-08'
p552
aF0.15606936416184972
aF1.5
aa(lp553
S'2016-06-05'
p554
aF0.43661971830985913
aF1.8928571428571428
aa(lp555
S'2016-06-04'
p556
aF0.3655913978494624
aF2.3448275862068964
aa(lp557
S'2016-06-07'
p558
aF0.16279069767441862
aF1.7608695652173914
aa(lp559
S'2016-06-06'
p560
aF0.2345679012345679
aF2.05
aa(lp561
S'2016-06-01'
p562
aF0.19047619047619047
aF1.0579710144927537
aa(lp563
S'2016-06-03'
p564
aF0.2265193370165746
aF0.9176470588235294
aa(lp565
S'2016-06-02'
p566
aF0.22699386503067484
aF1.9782608695652173
aa(lp567
S'2017-02-28'
p568
aF0.22699386503067484
aF1.5892857142857142
aa(lp569
S'2017-02-26'
p570
aF0.5677966101694916
aF2.7837837837837838
aa(lp571
S'2017-02-27'
p572
aF0.3333333333333333
aF3.2142857142857144
aa(lp573
S'2017-02-24'
p574
aF0.4084507042253521
aF1.6470588235294117
aa(lp575
S'2017-02-25'
p576
aF0.3961038961038961
aF1.3870967741935485
aa(lp577
S'2017-02-22'
p578
aF0.25
aF1.872340425531915
aa(lp579
S'2017-02-23'
p580
aF0.21212121212121213
aF1.5964912280701755
aa(lp581
S'2017-02-20'
p582
aF0.5267175572519084
aF2.5128205128205128
aa(lp583
S'2017-02-21'
p584
aF0.36054421768707484
aF4.037037037037037
aa(lp585
S'2016-04-29'
p586
aF0.3395061728395062
aF1.3048780487804879
aa(lp587
S'2016-04-28'
p588
aF0.21212121212121213
aF1.631578947368421
aa(lp589
S'2016-09-30'
p590
aF0.2556818181818182
aF2.372093023255814
aa(lp591
S'2016-12-31'
p592
aF0.33793103448275863
aF2.4047619047619047
aa(lp593
S'2017-04-07'
p594
aF0.30113636363636365
aF2.1
aa(lp595
S'2017-04-04'
p596
aF0.15606936416184972
aF1.6875
aa(lp597
S'2017-04-05'
p598
aF0.19760479041916168
aF1.3442622950819672
aa(lp599
S'2017-04-02'
p600
aF0.6666666666666666
aF2.763157894736842
aa(lp601
S'2017-04-03'
p602
aF0.5037593984962406
aF2.625
aa(lp603
S'2017-04-01'
p604
aF0.9534883720930233
aF4.636363636363637
aa(lp605
S'2017-04-08'
p606
aF0.5545454545454546
aF2.84375
aa(lp607
S'2017-04-09'
p608
aF0.5037593984962406
aF2.5609756097560976
aa(lp609
S'2017-01-05'
p610
aF0.13636363636363635
aF1.125
aa(lp611
S'2017-01-04'
p612
aF0.19760479041916168
aF2.896551724137931
aa(lp613
S'2017-01-07'
p614
aF0.6555555555555556
aF2.6333333333333333
aa(lp615
S'2017-01-06'
p616
aF0.3493975903614458
aF1.8846153846153846
aa(lp617
S'2017-01-01'
p618
aF0.47058823529411764
aF1.8857142857142857
aa(lp619
S'2016-04-27'
p620
aF0.14285714285714285
aF1.4655172413793103
aa(lp621
S'2017-01-03'
p622
aF0.32450331125827814
aF2.2972972972972974
aa(lp623
S'2017-01-02'
p624
aF0.4961832061068702
aF2.5384615384615383
aa(lp625
S'2016-04-26'
p626
aF0.12359550561797752
aF1.0615384615384615
aa(lp627
S'2017-01-09'
p628
aF0.2903225806451613
aF1.2272727272727273
aa(lp629
S'2017-01-08'
p630
aF0.3763440860215054
aF1.59375
aa(lp631
S'2016-05-26'
p632
aF0.21951219512195122
aF1.9795918367346939
aa(lp633
S'2016-05-27'
p634
aF0.22282608695652173
aF3.0555555555555554
aa(lp635
S'2016-05-24'
p636
aF0.20481927710843373
aF1.3392857142857142
aa(lp637
S'2016-05-25'
p638
aF0.22699386503067484
aF1.6818181818181819
aa(lp639
S'2016-05-22'
p640
aF0.5
aF3.357142857142857
aa(lp641
S'2016-05-23'
p642
aF0.1834319526627219
aF0.6744186046511628
aa(lp643
S'2016-05-20'
p644
aF0.23595505617977527
aF2.022727272727273
aa(lp645
S'2016-05-21'
p646
aF0.4868421052631579
aF4.2
aa(lp647
S'2016-07-31'
p648
aF0.5538461538461539
aF1.2727272727272727
aa(lp649
S'2016-05-28'
p650
aF0.4050632911392405
aF2.0714285714285716
aa(lp651
S'2016-05-29'
p652
aF0.22666666666666666
aF3.533333333333333
aa(lp653
S'2017-03-14'
p654
aF0.1695906432748538
aF1.0140845070422535
aa(lp655
S'2017-03-15'
p656
aF0.22699386503067484
aF1.8333333333333333
aa(lp657
S'2017-03-16'
p658
aF0.28205128205128205
aF2.473684210526316
aa(lp659
S'2016-11-11'
p660
aF0.23076923076923078
aF1.2073170731707317
aa(lp661
S'2017-03-10'
p662
aF0.3877551020408163
aF2.725
aa(lp663
S'2017-03-11'
p664
aF0.4
aF1.9782608695652173
aa(lp665
S'2017-03-12'
p666
aF0.5625
aF2.2444444444444445
aa(lp667
S'2017-03-13'
p668
aF0.30718954248366015
aF3.108108108108108
aa(lp669
S'2017-03-18'
p670
aF0.6306306306306306
aF2.5714285714285716
aa(lp671
S'2017-03-19'
p672
aF0.37857142857142856
aF2.9393939393939394
aa(lp673
S'2016-11-30'
p674
aF0.26582278481012656
aF2.106382978723404
aa(lp675
S'2016-08-07'
p676
aF0.3854166666666667
aF4.785714285714286
aa(lp677
S'2016-08-06'
p678
aF0.35384615384615387
aF2.764705882352941
aa(lp679
S'2016-08-05'
p680
aF0.26436781609195403
aF3.1052631578947367
aa(lp681
S'2016-08-04'
p682
aF0.19047619047619047
aF2.6875
aa(lp683
S'2016-08-03'
p684
aF0.3488372093023256
aF1.4375
aa(lp685
S'2016-08-02'
p686
aF0.14285714285714285
aF0.8192771084337349
aa(lp687
S'2016-08-01'
p688
aF0.21212121212121213
aF1.0724637681159421
aa(lp689
S'2016-11-24'
p690
aF0.1834319526627219
aF3.1666666666666665
aa(lp691
S'2016-08-09'
p692
aF0.19760479041916168
aF1.8666666666666667
aa(lp693
S'2016-08-08'
p694
aF0.22699386503067484
aF1.5714285714285714
aa(lp695
S'2016-04-18'
p696
aF0.1695906432748538
aF2.3076923076923075
aa(lp697
S'2016-04-19'
p698
aF0.21212121212121213
aF1.8571428571428572
aa(lp699
S'2016-04-14'
p700
aF0.17647058823529413
aF1.803921568627451
aa(lp701
S'2016-04-15'
p702
aF0.11827956989247312
aF0.6153846153846154
aa(lp703
S'2016-04-16'
p704
aF0.35064935064935066
aF2.28
aa(lp705
S'2016-04-17'
p706
aF0.2808988764044944
aF1.5
aa(lp707
S'2016-10-20'
p708
aF0.21951219512195122
aF2.658536585365854
aa(lp709
S'2016-10-21'
p710
aF0.2857142857142857
aF1.2857142857142858
aa(lp711
S'2016-10-22'
p712
aF0.38848920863309355
aF3.129032258064516
aa(lp713
S'2016-10-23'
p714
aF0.25
aF3.65
aa(lp715
S'2016-10-24'
p716
aF0.1834319526627219
aF1.4375
aa(lp717
S'2016-10-25'
p718
aF0.21951219512195122
aF1.123076923076923
aa(lp719
S'2016-10-26'
p720
aF0.2345679012345679
aF1.5833333333333333
aa(lp721
S'2016-10-27'
p722
aF0.2345679012345679
aF2.0232558139534884
aa(lp723
S'2016-10-28'
p724
aF0.1715686274509804
aF1.7833333333333334
aa(lp725
S'2016-10-29'
p726
aF0.4935064935064935
aF1.1951219512195121
aa(lp727
S'2016-07-24'
p728
aF0.3170731707317073
aF2.7777777777777777
aa(lp729
S'2016-07-25'
p730
aF0.21212121212121213
aF1.1875
aa(lp731
S'2016-07-26'
p732
aF0.11731843575418995
aF1.3559322033898304
aa(lp733
S'2016-07-27'
p734
aF0.09289617486338798
aF1.3333333333333333
aa(lp735
S'2016-07-20'
p736
aF0.22699386503067484
aF2.1020408163265305
aa(lp737
S'2016-07-21'
p738
aF0.11731843575418995
aF0.868421052631579
aa(lp739
S'2016-07-22'
p740
aF0.2265193370165746
aF2.7714285714285714
aa(lp741
S'2016-07-23'
p742
aF0.3037974683544304
aF3.8666666666666667
aa(lp743
S'2016-07-28'
p744
aF0.2345679012345679
aF1.4705882352941178
aa(lp745
S'2016-07-29'
p746
aF0.16243654822335024
aF1.15625
aa(lp747
S'2016-06-30'
p748
aF0.1834319526627219
aF3.0357142857142856
aa.