(lp0
(lp1
S'2016-08-30'
p2
aI32
aI168
aI78
aI63
aa(lp3
S'2016-08-31'
p4
aI32
aI168
aI62
aI90
aa(lp5
S'2017-04-19'
p6
aI36
aI164
aI76
aI54
aa(lp7
S'2016-09-08'
p8
aI20
aI180
aI77
aI74
aa(lp9
S'2016-09-09'
p10
aI35
aI186
aI86
aI105
aa(lp11
S'2016-09-04'
p12
aI18
aI82
aI54
aI15
aa(lp13
S'2016-09-05'
p14
aI33
aI167
aI87
aI64
aa(lp15
S'2016-09-06'
p16
aI32
aI168
aI60
aI59
aa(lp17
S'2016-09-07'
p18
aI18
aI182
aI99
aI51
aa(lp19
S'2016-09-01'
p20
aI40
aI160
aI73
aI58
aa(lp21
S'2016-09-02'
p22
aI28
aI193
aI106
aI26
aa(lp23
S'2016-09-03'
p24
aI22
aI94
aI71
aI18
aa(lp25
S'2016-12-04'
p26
aI45
aI101
aI77
aI21
aa(lp27
S'2016-12-05'
p28
aI35
aI165
aI76
aI22
aa(lp29
S'2016-12-06'
p30
aI30
aI170
aI85
aI45
aa(lp31
S'2016-12-07'
p32
aI46
aI154
aI102
aI26
aa(lp33
S'2017-04-11'
p34
aI41
aI159
aI72
aI58
aa(lp35
S'2017-04-10'
p36
aI49
aI151
aI92
aI57
aa(lp37
S'2016-12-02'
p38
aI28
aI207
aI72
aI78
aa(lp39
S'2016-12-03'
p40
aI48
aI82
aI75
aI33
aa(lp41
S'2017-01-30'
p42
aI38
aI162
aI79
aI57
aa(lp43
S'2017-01-31'
p44
aI36
aI164
aI95
aI46
aa(lp45
S'2016-12-08'
p46
aI33
aI167
aI106
aI41
aa(lp47
S'2017-04-18'
p48
aI41
aI159
aI63
aI82
aa(lp49
S'2017-03-09'
p50
aI41
aI159
aI71
aI66
aa(lp51
S'2017-03-08'
p52
aI45
aI155
aI80
aI59
aa(lp53
S'2016-05-31'
p54
aI39
aI161
aI53
aI87
aa(lp55
S'2016-05-30'
p56
aI28
aI172
aI87
aI51
aa(lp57
S'2017-03-03'
p58
aI41
aI160
aI87
aI34
aa(lp59
S'2017-03-02'
p60
aI40
aI160
aI85
aI52
aa(lp61
S'2017-03-01'
p62
aI48
aI152
aI113
aI31
aa(lp63
S'2017-03-07'
p64
aI42
aI158
aI77
aI56
aa(lp65
S'2017-03-06'
p66
aI44
aI156
aI89
aI60
aa(lp67
S'2017-03-05'
p68
aI58
aI106
aI89
aI31
aa(lp69
S'2017-03-04'
p70
aI72
aI163
aI122
aI56
aa(lp71
S'2016-07-17'
p72
aI18
aI76
aI38
aI18
aa(lp73
S'2016-07-16'
p74
aI35
aI93
aI61
aI17
aa(lp75
S'2016-11-23'
p76
aI64
aI136
aI95
aI43
aa(lp77
S'2016-11-22'
p78
aI61
aI139
aI102
aI32
aa(lp79
S'2016-11-21'
p80
aI36
aI164
aI100
aI34
aa(lp81
S'2016-11-20'
p82
aI26
aI83
aI51
aI15
aa(lp83
S'2016-11-27'
p84
aI35
aI104
aI79
aI26
aa(lp85
S'2016-11-26'
p86
aI54
aI93
aI72
aI46
aa(lp87
S'2016-11-25'
p88
aI47
aI190
aI107
aI35
aa(lp89
S'2016-07-18'
p90
aI27
aI173
aI80
aI57
aa(lp91
S'2016-11-29'
p92
aI47
aI153
aI69
aI54
aa(lp93
S'2016-11-28'
p94
aI35
aI165
aI71
aI63
aa(lp95
S'2017-03-17'
p96
aI61
aI165
aI118
aI43
aa(lp97
S'2016-05-10'
p98
aI20
aI180
aI73
aI35
aa(lp99
S'2016-10-31'
p100
aI41
aI159
aI76
aI75
aa(lp101
S'2016-10-30'
p102
aI24
aI93
aI63
aI20
aa(lp103
S'2017-04-06'
p104
aI39
aI161
aI81
aI45
aa(lp105
S'2016-06-27'
p106
aI21
aI179
aI51
aI109
aa(lp107
S'2016-06-26'
p108
aI16
aI129
aI48
aI47
aa(lp109
S'2016-06-25'
p110
aI34
aI163
aI87
aI42
aa(lp111
S'2016-06-24'
p112
aI27
aI206
aI90
aI109
aa(lp113
S'2016-06-23'
p114
aI29
aI171
aI86
aI33
aa(lp115
S'2016-06-22'
p116
aI19
aI181
aI71
aI69
aa(lp117
S'2016-06-21'
p118
aI30
aI170
aI87
aI36
aa(lp119
S'2016-06-20'
p120
aI37
aI163
aI88
aI28
aa(lp121
S'2016-06-29'
p122
aI21
aI179
aI96
aI26
aa(lp123
S'2016-06-28'
p124
aI21
aI179
aI97
aI45
aa(lp125
S'2016-12-30'
p126
aI37
aI194
aI90
aI71
aa(lp127
S'2017-03-30'
p128
aI53
aI147
aI100
aI39
aa(lp129
S'2017-03-31'
p130
aI47
aI182
aI93
aI62
aa(lp131
S'2016-12-19'
p132
aI34
aI166
aI78
aI48
aa(lp133
S'2016-11-18'
p134
aI50
aI180
aI126
aI68
aa(lp135
S'2016-11-19'
p136
aI55
aI128
aI102
aI45
aa(lp137
S'2016-11-12'
p138
aI49
aI95
aI65
aI35
aa(lp139
S'2016-11-13'
p140
aI30
aI99
aI65
aI22
aa(lp141
S'2016-11-10'
p142
aI40
aI160
aI90
aI30
aa(lp143
S'2016-07-30'
p144
aI27
aI72
aI54
aI24
aa(lp145
S'2016-11-16'
p146
aI27
aI173
aI81
aI63
aa(lp147
S'2016-11-17'
p148
aI35
aI165
aI95
aI37
aa(lp149
S'2016-11-14'
p150
aI24
aI176
aI65
aI58
aa(lp151
S'2016-11-15'
p152
aI43
aI157
aI66
aI42
aa(lp153
S'2017-04-20'
p154
aI50
aI150
aI71
aI45
aa(lp155
S'2017-04-21'
p156
aI65
aI165
aI83
aI67
aa(lp157
S'2017-04-22'
p158
aI48
aI79
aI72
aI23
aa(lp159
S'2016-09-18'
p160
aI17
aI75
aI57
aI18
aa(lp161
S'2016-08-29'
p162
aI34
aI166
aI74
aI38
aa(lp163
S'2016-08-28'
p164
aI21
aI98
aI58
aI27
aa(lp165
S'2016-08-25'
p166
aI20
aI180
aI84
aI65
aa(lp167
S'2016-08-24'
p168
aI35
aI165
aI80
aI75
aa(lp169
S'2016-08-27'
p170
aI46
aI116
aI69
aI60
aa(lp171
S'2016-08-26'
p172
aI35
aI190
aI92
aI46
aa(lp173
S'2016-08-21'
p174
aI19
aI79
aI43
aI17
aa(lp175
S'2016-08-20'
p176
aI25
aI82
aI64
aI20
aa(lp177
S'2016-08-23'
p178
aI43
aI157
aI99
aI44
aa(lp179
S'2016-08-22'
p180
aI35
aI165
aI61
aI76
aa(lp181
S'2017-02-01'
p182
aI33
aI167
aI108
aI39
aa(lp183
S'2017-02-02'
p184
aI40
aI160
aI86
aI41
aa(lp185
S'2017-02-03'
p186
aI61
aI182
aI120
aI37
aa(lp187
S'2017-02-04'
p188
aI54
aI129
aI92
aI44
aa(lp189
S'2017-02-05'
p190
aI61
aI113
aI73
aI36
aa(lp191
S'2017-02-06'
p192
aI57
aI143
aI76
aI55
aa(lp193
S'2017-02-07'
p194
aI39
aI161
aI102
aI51
aa(lp195
S'2017-02-08'
p196
aI45
aI155
aI81
aI49
aa(lp197
S'2017-02-09'
p198
aI41
aI159
aI99
aI32
aa(lp199
S'2016-04-30'
p200
aI42
aI95
aI74
aI31
aa(lp201
S'2016-10-08'
p202
aI64
aI106
aI90
aI37
aa(lp203
S'2016-10-09'
p204
aI29
aI88
aI68
aI22
aa(lp205
S'2016-10-06'
p206
aI27
aI173
aI86
aI72
aa(lp207
S'2016-10-07'
p208
aI47
aI165
aI89
aI80
aa(lp209
S'2016-10-04'
p210
aI50
aI150
aI100
aI54
aa(lp211
S'2016-10-05'
p212
aI44
aI156
aI74
aI51
aa(lp213
S'2016-10-02'
p214
aI38
aI65
aI69
aI17
aa(lp215
S'2016-10-03'
p216
aI37
aI163
aI95
aI49
aa(lp217
S'2016-10-01'
p218
aI64
aI81
aI95
aI22
aa(lp219
S'2016-09-13'
p220
aI40
aI160
aI67
aI96
aa(lp221
S'2016-09-12'
p222
aI31
aI169
aI76
aI36
aa(lp223
S'2016-09-11'
p224
aI49
aI69
aI82
aI23
aa(lp225
S'2016-09-10'
p226
aI34
aI97
aI85
aI21
aa(lp227
S'2016-09-17'
p228
aI30
aI77
aI54
aI26
aa(lp229
S'2016-09-16'
p230
aI35
aI185
aI101
aI78
aa(lp231
S'2016-09-15'
p232
aI24
aI176
aI99
aI27
aa(lp233
S'2016-09-14'
p234
aI33
aI167
aI70
aI65
aa(lp235
S'2016-12-13'
p236
aI35
aI165
aI74
aI39
aa(lp237
S'2016-12-12'
p238
aI30
aI170
aI76
aI56
aa(lp239
S'2016-12-11'
p240
aI26
aI97
aI69
aI15
aa(lp241
S'2016-12-10'
p242
aI61
aI87
aI78
aI32
aa(lp243
S'2016-12-17'
p244
aI63
aI129
aI85
aI67
aa(lp245
S'2016-12-16'
p246
aI46
aI180
aI84
aI52
aa(lp247
S'2016-12-15'
p248
aI28
aI172
aI81
aI36
aa(lp249
S'2016-12-14'
p250
aI26
aI174
aI89
aI64
aa(lp251
S'2017-01-29'
p252
aI48
aI152
aI79
aI24
aa(lp253
S'2017-01-28'
p254
aI51
aI104
aI80
aI38
aa(lp255
S'2017-01-27'
p256
aI78
aI159
aI125
aI51
aa(lp257
S'2017-01-26'
p258
aI40
aI160
aI76
aI56
aa(lp259
S'2017-01-25'
p260
aI80
aI120
aI100
aI32
aa(lp261
S'2017-01-24'
p262
aI42
aI158
aI95
aI25
aa(lp263
S'2017-01-23'
p264
aI53
aI147
aI93
aI55
aa(lp265
S'2017-01-22'
p266
aI52
aI102
aI83
aI30
aa(lp267
S'2017-01-21'
p268
aI62
aI116
aI90
aI40
aa(lp269
S'2017-01-20'
p270
aI58
aI186
aI122
aI45
aa(lp271
S'2016-07-02'
p272
aI23
aI101
aI63
aI19
aa(lp273
S'2016-07-03'
p274
aI19
aI90
aI46
aI25
aa(lp275
S'2016-07-01'
p276
aI25
aI193
aI114
aI37
aa(lp277
S'2016-07-06'
p278
aI21
aI179
aI81
aI64
aa(lp279
S'2016-07-07'
p280
aI26
aI174
aI89
aI44
aa(lp281
S'2016-07-04'
p282
aI28
aI172
aI77
aI60
aa(lp283
S'2016-07-05'
p284
aI18
aI182
aI62
aI93
aa(lp285
S'2016-05-01'
p286
aI33
aI84
aI59
aI26
aa(lp287
S'2016-07-08'
p288
aI31
aI183
aI117
aI21
aa(lp289
S'2016-07-09'
p290
aI26
aI68
aI53
aI12
aa(lp291
S'2016-05-04'
p292
aI23
aI177
aI64
aI95
aa(lp293
S'2016-05-05'
p294
aI36
aI164
aI84
aI56
aa(lp295
S'2016-05-06'
p296
aI36
aI195
aI102
aI76
aa(lp297
S'2016-05-07'
p298
aI49
aI116
aI104
aI43
aa(lp299
S'2016-06-18'
p300
aI48
aI120
aI90
aI25
aa(lp301
S'2016-06-19'
p302
aI28
aI75
aI45
aI15
aa(lp303
S'2016-06-16'
p304
aI27
aI173
aI65
aI64
aa(lp305
S'2016-06-17'
p306
aI32
aI185
aI88
aI40
aa(lp307
S'2016-06-14'
p308
aI45
aI155
aI56
aI105
aa(lp309
S'2016-06-15'
p310
aI24
aI176
aI86
aI41
aa(lp311
S'2016-06-12'
p312
aI18
aI40
aI27
aI10
aa(lp313
S'2016-06-13'
p314
aI25
aI175
aI55
aI93
aa(lp315
S'2016-06-10'
p316
aI36
aI173
aI68
aI95
aa(lp317
S'2016-06-11'
p318
aI32
aI81
aI44
aI28
aa(lp319
S'2016-05-08'
p320
aI40
aI115
aI90
aI33
aa(lp321
S'2016-05-09'
p322
aI21
aI179
aI65
aI79
aa(lp323
S'2016-05-02'
p324
aI41
aI159
aI72
aI55
aa(lp325
S'2016-05-03'
p326
aI45
aI155
aI58
aI83
aa(lp327
S'2017-03-23'
p328
aI26
aI174
aI99
aI46
aa(lp329
S'2016-12-18'
p330
aI37
aI122
aI70
aI42
aa(lp331
S'2016-09-28'
p332
aI35
aI165
aI81
aI42
aa(lp333
S'2016-09-29'
p334
aI24
aI176
aI78
aI73
aa(lp335
S'2016-09-22'
p336
aI33
aI167
aI87
aI31
aa(lp337
S'2016-09-23'
p338
aI48
aI167
aI79
aI81
aa(lp339
S'2016-09-20'
p340
aI39
aI161
aI65
aI55
aa(lp341
S'2016-09-21'
p342
aI28
aI172
aI110
aI35
aa(lp343
S'2016-09-26'
p344
aI34
aI166
aI61
aI83
aa(lp345
S'2016-09-27'
p346
aI36
aI164
aI73
aI49
aa(lp347
S'2016-09-24'
p348
aI43
aI86
aI76
aI30
aa(lp349
S'2016-09-25'
p350
aI23
aI80
aI59
aI14
aa(lp351
S'2016-12-22'
p352
aI34
aI166
aI76
aI68
aa(lp353
S'2016-12-23'
p354
aI32
aI208
aI96
aI72
aa(lp355
S'2016-12-20'
p356
aI45
aI155
aI85
aI48
aa(lp357
S'2016-12-21'
p358
aI42
aI158
aI77
aI63
aa(lp359
S'2016-12-26'
p360
aI42
aI113
aI69
aI31
aa(lp361
S'2016-12-27'
p362
aI48
aI152
aI73
aI36
aa(lp363
S'2016-12-24'
p364
aI52
aI78
aI34
aI58
aa(lp365
S'2016-12-25'
p366
aI29
aI120
aI69
aI38
aa(lp367
S'2016-12-28'
p368
aI50
aI150
aI106
aI51
aa(lp369
S'2016-12-29'
p370
aI37
aI163
aI83
aI58
aa(lp371
S'2017-01-16'
p372
aI54
aI146
aI98
aI55
aa(lp373
S'2017-01-17'
p374
aI45
aI155
aI83
aI69
aa(lp375
S'2017-01-14'
p376
aI48
aI135
aI87
aI44
aa(lp377
S'2017-01-15'
p378
aI46
aI102
aI73
aI33
aa(lp379
S'2017-01-12'
p380
aI41
aI159
aI78
aI62
aa(lp381
S'2017-01-13'
p382
aI52
aI185
aI114
aI50
aa(lp383
S'2017-01-10'
p384
aI51
aI149
aI106
aI49
aa(lp385
S'2017-01-11'
p386
aI44
aI156
aI81
aI47
aa(lp387
S'2017-01-18'
p388
aI32
aI168
aI85
aI69
aa(lp389
S'2017-01-19'
p390
aI30
aI170
aI72
aI79
aa(lp391
S'2017-03-21'
p392
aI41
aI159
aI72
aI74
aa(lp393
S'2017-03-20'
p394
aI51
aI149
aI89
aI53
aa(lp395
S'2016-07-19'
p396
aI36
aI164
aI67
aI70
aa(lp397
S'2017-03-22'
p398
aI39
aI161
aI71
aI71
aa(lp399
S'2017-03-25'
p400
aI70
aI111
aI102
aI46
aa(lp401
S'2017-03-24'
p402
aI50
aI178
aI100
aI69
aa(lp403
S'2017-03-27'
p404
aI52
aI148
aI97
aI40
aa(lp405
S'2017-03-26'
p406
aI71
aI105
aI99
aI38
aa(lp407
S'2017-03-29'
p408
aI35
aI165
aI77
aI38
aa(lp409
S'2017-03-28'
p410
aI40
aI160
aI96
aI37
aa(lp411
S'2016-11-09'
p412
aI32
aI168
aI85
aI27
aa(lp413
S'2016-11-08'
p414
aI50
aI150
aI85
aI28
aa(lp415
S'2016-11-01'
p416
aI31
aI169
aI49
aI93
aa(lp417
S'2016-11-03'
p418
aI32
aI168
aI79
aI84
aa(lp419
S'2016-11-02'
p420
aI35
aI165
aI58
aI84
aa(lp421
S'2016-11-05'
p422
aI35
aI118
aI76
aI37
aa(lp423
S'2016-11-04'
p424
aI65
aI165
aI101
aI71
aa(lp425
S'2016-11-07'
p426
aI38
aI162
aI75
aI31
aa(lp427
S'2016-11-06'
p428
aI67
aI112
aI81
aI40
aa(lp429
S'2016-08-10'
p430
aI22
aI178
aI81
aI63
aa(lp431
S'2016-08-11'
p432
aI37
aI163
aI96
aI31
aa(lp433
S'2016-08-12'
p434
aI33
aI188
aI88
aI58
aa(lp435
S'2016-08-13'
p436
aI26
aI67
aI54
aI16
aa(lp437
S'2016-08-14'
p438
aI25
aI73
aI51
aI16
aa(lp439
S'2016-08-15'
p440
aI28
aI172
aI94
aI37
aa(lp441
S'2016-08-16'
p442
aI25
aI175
aI64
aI71
aa(lp443
S'2016-08-17'
p444
aI24
aI176
aI58
aI63
aa(lp445
S'2016-08-18'
p446
aI41
aI159
aI91
aI44
aa(lp447
S'2016-08-19'
p448
aI32
aI186
aI86
aI75
aa(lp449
S'2017-02-17'
p450
aI66
aI155
aI110
aI60
aa(lp451
S'2017-02-16'
p452
aI42
aI158
aI99
aI55
aa(lp453
S'2017-02-15'
p454
aI38
aI162
aI86
aI48
aa(lp455
S'2017-02-14'
p456
aI40
aI160
aI73
aI49
aa(lp457
S'2017-02-13'
p458
aI51
aI149
aI103
aI36
aa(lp459
S'2017-02-12'
p460
aI61
aI139
aI114
aI34
aa(lp461
S'2017-02-11'
p462
aI65
aI135
aI89
aI61
aa(lp463
S'2017-02-10'
p464
aI54
aI146
aI107
aI34
aa(lp465
S'2016-04-21'
p466
aI18
aI182
aI71
aI71
aa(lp467
S'2016-04-20'
p468
aI23
aI177
aI90
aI39
aa(lp469
S'2016-04-23'
p470
aI38
aI99
aI72
aI33
aa(lp471
S'2016-04-22'
p472
aI37
aI193
aI88
aI66
aa(lp473
S'2016-04-25'
p474
aI20
aI180
aI57
aI86
aa(lp475
S'2016-04-24'
p476
aI29
aI88
aI56
aI18
aa(lp477
S'2017-02-19'
p478
aI55
aI112
aI82
aI27
aa(lp479
S'2017-02-18'
p480
aI68
aI144
aI108
aI38
aa(lp481
S'2016-09-19'
p482
aI26
aI174
aI84
aI43
aa(lp483
S'2016-10-19'
p484
aI43
aI157
aI78
aI37
aa(lp485
S'2016-10-18'
p486
aI40
aI160
aI89
aI24
aa(lp487
S'2016-10-15'
p488
aI41
aI102
aI72
aI43
aa(lp489
S'2016-10-14'
p490
aI48
aI182
aI105
aI40
aa(lp491
S'2016-10-17'
p492
aI44
aI156
aI78
aI64
aa(lp493
S'2016-10-16'
p494
aI21
aI95
aI65
aI19
aa(lp495
S'2016-10-11'
p496
aI30
aI170
aI67
aI78
aa(lp497
S'2016-10-10'
p498
aI44
aI156
aI87
aI19
aa(lp499
S'2016-10-13'
p500
aI39
aI161
aI87
aI73
aa(lp501
S'2016-10-12'
p502
aI36
aI164
aI76
aI61
aa(lp503
S'2017-04-15'
p504
aI71
aI97
aI87
aI27
aa(lp505
S'2017-04-14'
p506
aI89
aI139
aI105
aI66
aa(lp507
S'2017-04-17'
p508
aI62
aI138
aI84
aI24
aa(lp509
S'2017-04-16'
p510
aI64
aI118
aI84
aI36
aa(lp511
S'2016-12-01'
p512
aI33
aI167
aI70
aI58
aa(lp513
S'2017-04-13'
p514
aI38
aI162
aI53
aI83
aa(lp515
S'2017-04-12'
p516
aI45
aI155
aI85
aI71
aa(lp517
S'2016-07-11'
p518
aI42
aI158
aI84
aI31
aa(lp519
S'2016-07-10'
p520
aI26
aI80
aI53
aI19
aa(lp521
S'2016-07-13'
p522
aI29
aI171
aI76
aI70
aa(lp523
S'2016-07-12'
p524
aI29
aI171
aI85
aI40
aa(lp525
S'2016-07-15'
p526
aI39
aI180
aI98
aI66
aa(lp527
S'2016-07-14'
p528
aI28
aI172
aI106
aI32
aa(lp529
S'2016-05-19'
p530
aI19
aI181
aI102
aI63
aa(lp531
S'2016-05-18'
p532
aI19
aI181
aI81
aI60
aa(lp533
S'2016-05-17'
p534
aI21
aI179
aI72
aI75
aa(lp535
S'2016-05-16'
p536
aI28
aI172
aI74
aI45
aa(lp537
S'2016-05-15'
p538
aI23
aI80
aI44
aI29
aa(lp539
S'2016-05-14'
p540
aI28
aI81
aI44
aI41
aa(lp541
S'2016-05-13'
p542
aI27
aI193
aI103
aI68
aa(lp543
S'2016-05-12'
p544
aI34
aI166
aI68
aI67
aa(lp545
S'2016-05-11'
p546
aI34
aI166
aI82
aI79
aa(lp547
S'2016-12-09'
p548
aI41
aI190
aI110
aI43
aa(lp549
S'2016-06-09'
p550
aI25
aI175
aI62
aI86
aa(lp551
S'2016-06-08'
p552
aI27
aI173
aI78
aI52
aa(lp553
S'2016-06-05'
p554
aI31
aI71
aI53
aI28
aa(lp555
S'2016-06-04'
p556
aI34
aI93
aI68
aI29
aa(lp557
S'2016-06-07'
p558
aI28
aI172
aI81
aI46
aa(lp559
S'2016-06-06'
p560
aI38
aI162
aI82
aI40
aa(lp561
S'2016-06-01'
p562
aI32
aI168
aI73
aI69
aa(lp563
S'2016-06-03'
p564
aI41
aI181
aI78
aI85
aa(lp565
S'2016-06-02'
p566
aI37
aI163
aI91
aI46
aa(lp567
S'2017-02-28'
p568
aI37
aI163
aI89
aI56
aa(lp569
S'2017-02-26'
p570
aI67
aI118
aI103
aI37
aa(lp571
S'2017-02-27'
p572
aI50
aI150
aI90
aI28
aa(lp573
S'2017-02-24'
p574
aI58
aI142
aI84
aI51
aa(lp575
S'2017-02-25'
p576
aI61
aI154
aI86
aI62
aa(lp577
S'2017-02-22'
p578
aI40
aI160
aI88
aI47
aa(lp579
S'2017-02-23'
p580
aI35
aI165
aI91
aI57
aa(lp581
S'2017-02-20'
p582
aI69
aI131
aI98
aI39
aa(lp583
S'2017-02-21'
p584
aI53
aI147
aI109
aI27
aa(lp585
S'2016-04-29'
p586
aI55
aI162
aI107
aI82
aa(lp587
S'2016-04-28'
p588
aI35
aI165
aI93
aI57
aa(lp589
S'2016-09-30'
p590
aI45
aI176
aI102
aI43
aa(lp591
S'2016-12-31'
p592
aI49
aI145
aI101
aI42
aa(lp593
S'2017-04-07'
p594
aI53
aI176
aI105
aI50
aa(lp595
S'2017-04-04'
p596
aI27
aI173
aI81
aI48
aa(lp597
S'2017-04-05'
p598
aI33
aI167
aI82
aI61
aa(lp599
S'2017-04-02'
p600
aI80
aI120
aI105
aI38
aa(lp601
S'2017-04-03'
p602
aI67
aI133
aI105
aI40
aa(lp603
S'2017-04-01'
p604
aI82
aI86
aI102
aI22
aa(lp605
S'2017-04-08'
p606
aI61
aI110
aI91
aI32
aa(lp607
S'2017-04-09'
p608
aI67
aI133
aI105
aI41
aa(lp609
S'2017-01-05'
p610
aI24
aI176
aI72
aI64
aa(lp611
S'2017-01-04'
p612
aI33
aI167
aI84
aI29
aa(lp613
S'2017-01-07'
p614
aI59
aI90
aI79
aI30
aa(lp615
S'2017-01-06'
p616
aI58
aI166
aI98
aI52
aa(lp617
S'2017-01-01'
p618
aI48
aI102
aI66
aI35
aa(lp619
S'2016-04-27'
p620
aI25
aI175
aI85
aI58
aa(lp621
S'2017-01-03'
p622
aI49
aI151
aI85
aI37
aa(lp623
S'2017-01-02'
p624
aI65
aI131
aI99
aI39
aa(lp625
S'2016-04-26'
p626
aI22
aI178
aI69
aI65
aa(lp627
S'2017-01-09'
p628
aI45
aI155
aI81
aI66
aa(lp629
S'2017-01-08'
p630
aI35
aI93
aI51
aI32
aa(lp631
S'2016-05-26'
p632
aI36
aI164
aI97
aI49
aa(lp633
S'2016-05-27'
p634
aI41
aI184
aI110
aI36
aa(lp635
S'2016-05-24'
p636
aI34
aI166
aI75
aI56
aa(lp637
S'2016-05-25'
p638
aI37
aI163
aI74
aI44
aa(lp639
S'2016-05-22'
p640
aI31
aI62
aI47
aI14
aa(lp641
S'2016-05-23'
p642
aI31
aI169
aI58
aI86
aa(lp643
S'2016-05-20'
p644
aI42
aI178
aI89
aI44
aa(lp645
S'2016-05-21'
p646
aI37
aI76
aI63
aI15
aa(lp647
S'2016-07-31'
p648
aI36
aI65
aI42
aI33
aa(lp649
S'2016-05-28'
p650
aI32
aI79
aI58
aI28
aa(lp651
S'2016-05-29'
p652
aI17
aI75
aI53
aI15
aa(lp653
S'2017-03-14'
p654
aI29
aI171
aI72
aI71
aa(lp655
S'2017-03-15'
p656
aI37
aI163
aI77
aI42
aa(lp657
S'2017-03-16'
p658
aI44
aI156
aI94
aI38
aa(lp659
S'2016-11-11'
p660
aI45
aI195
aI99
aI82
aa(lp661
S'2017-03-10'
p662
aI57
aI147
aI109
aI40
aa(lp663
S'2017-03-11'
p664
aI56
aI140
aI91
aI46
aa(lp665
S'2017-03-12'
p666
aI72
aI128
aI101
aI45
aa(lp667
S'2017-03-13'
p668
aI47
aI153
aI115
aI37
aa(lp669
S'2017-03-18'
p670
aI70
aI111
aI108
aI42
aa(lp671
S'2017-03-19'
p672
aI53
aI140
aI97
aI33
aa(lp673
S'2016-11-30'
p674
aI42
aI158
aI99
aI47
aa(lp675
S'2016-08-07'
p676
aI37
aI96
aI67
aI14
aa(lp677
S'2016-08-06'
p678
aI23
aI65
aI47
aI17
aa(lp679
S'2016-08-05'
p680
aI46
aI174
aI118
aI38
aa(lp681
S'2016-08-04'
p682
aI32
aI168
aI86
aI32
aa(lp683
S'2016-08-03'
p684
aI15
aI43
aI23
aI16
aa(lp685
S'2016-08-02'
p686
aI25
aI175
aI68
aI83
aa(lp687
S'2016-08-01'
p688
aI35
aI165
aI74
aI69
aa(lp689
S'2016-11-24'
p690
aI31
aI169
aI114
aI36
aa(lp691
S'2016-08-09'
p692
aI33
aI167
aI84
aI45
aa(lp693
S'2016-08-08'
p694
aI37
aI163
aI77
aI49
aa(lp695
S'2016-04-18'
p696
aI29
aI171
aI90
aI39
aa(lp697
S'2016-04-19'
p698
aI35
aI165
aI91
aI49
aa(lp699
S'2016-04-14'
p700
aI30
aI170
aI92
aI51
aa(lp701
S'2016-04-15'
p702
aI22
aI186
aI56
aI91
aa(lp703
S'2016-04-16'
p704
aI27
aI77
aI57
aI25
aa(lp705
S'2016-04-17'
p706
aI25
aI89
aI42
aI28
aa(lp707
S'2016-10-20'
p708
aI36
aI164
aI109
aI41
aa(lp709
S'2016-10-21'
p710
aI50
aI175
aI99
aI77
aa(lp711
S'2016-10-22'
p712
aI54
aI139
aI97
aI31
aa(lp713
S'2016-10-23'
p714
aI26
aI104
aI73
aI20
aa(lp715
S'2016-10-24'
p716
aI31
aI169
aI69
aI48
aa(lp717
S'2016-10-25'
p718
aI36
aI164
aI73
aI65
aa(lp719
S'2016-10-26'
p720
aI38
aI162
aI76
aI48
aa(lp721
S'2016-10-27'
p722
aI38
aI162
aI87
aI43
aa(lp723
S'2016-10-28'
p724
aI35
aI204
aI107
aI60
aa(lp725
S'2016-10-29'
p726
aI38
aI77
aI49
aI41
aa(lp727
S'2016-07-24'
p728
aI26
aI82
aI50
aI18
aa(lp729
S'2016-07-25'
p730
aI35
aI165
aI76
aI64
aa(lp731
S'2016-07-26'
p732
aI21
aI179
aI80
aI59
aa(lp733
S'2016-07-27'
p734
aI17
aI183
aI80
aI60
aa(lp735
S'2016-07-20'
p736
aI37
aI163
aI103
aI49
aa(lp737
S'2016-07-21'
p738
aI21
aI179
aI66
aI76
aa(lp739
S'2016-07-22'
p740
aI41
aI181
aI97
aI35
aa(lp741
S'2016-07-23'
p742
aI24
aI79
aI58
aI15
aa(lp743
S'2016-07-28'
p744
aI38
aI162
aI75
aI51
aa(lp745
S'2016-07-29'
p746
aI32
aI197
aI74
aI64
aa(lp747
S'2016-06-30'
p748
aI31
aI169
aI85
aI28
aa.