(lp0
(lp1
S'2017-03-13'
p2
aF0.5873015873015873
aF1.5681818181818181
aa(lp3
S'2017-03-09'
p4
aF0.4925373134328358
aF2.3823529411764706
aa(lp5
S'2017-03-08'
p6
aF0.7699115044247787
aF1.7659574468085106
aa(lp7
S'2017-03-17'
p8
aF0.5384615384615384
aF1.553191489361702
aa(lp9
S'2017-04-06'
p10
aF0.3698630136986301
aF1.3508771929824561
aa(lp11
S'2017-03-20'
p12
aF0.6666666666666666
aF2.054054054054054
aa(lp13
S'2017-04-04'
p14
aF0.48148148148148145
aF1.5333333333333334
aa(lp15
S'2017-04-05'
p16
aF0.5384615384615384
aF2.3783783783783785
aa(lp17
S'2017-04-02'
p18
aF0.4492753623188406
aF1.6521739130434783
aa(lp19
S'2017-04-03'
p20
aF0.43884892086330934
aF1.2962962962962963
aa(lp21
S'2017-03-27'
p22
aF0.3157894736842105
aF1.8888888888888888
aa(lp23
S'2017-04-01'
p24
aF0.6129032258064516
aF1.8333333333333333
aa(lp25
S'2017-03-29'
p26
aF0.6260162601626016
aF1.875
aa(lp27
S'2017-03-28'
p28
aF0.4632352941176471
aF2.2972972972972974
aa(lp29
S'2017-03-21'
p30
aF0.45985401459854014
aF1.4074074074074074
aa(lp31
S'2017-03-16'
p32
aF0.5384615384615384
aF2.289473684210526
aa(lp33
S'2017-03-22'
p34
aF0.6260162601626016
aF2.325
aa(lp35
S'2017-03-25'
p36
aF0.8348623853211009
aF3.44
aa(lp37
S'2017-03-24'
p38
aF0.7391304347826086
aF2.9310344827586206
aa(lp39
S'2017-03-14'
p40
aF0.6949152542372882
aF2.6206896551724137
aa(lp41
S'2017-03-15'
p42
aF0.5503875968992248
aF2.263157894736842
aa(lp43
S'2017-03-30'
p44
aF0.41843971631205673
aF1.5918367346938775
aa(lp45
S'2017-03-31'
p46
aF0.6583333333333333
aF1.95
aa(lp47
S'2017-03-10'
p48
aF0.6260162601626016
aF2.4857142857142858
aa(lp49
S'2017-03-11'
p50
aF0.5873015873015873
aF2.8666666666666667
aa(lp51
S'2017-03-12'
p52
aF0.6129032258064516
aF2.324324324324324
aa(lp53
S'2017-03-23'
p54
aF0.5625
aF2.4516129032258065
aa(lp55
S'2017-03-26'
p56
aF0.33774834437086093
aF1.8478260869565217
aa(lp57
S'2017-03-18'
p58
aF0.7857142857142857
aF2.588235294117647
aa(lp59
S'2017-03-19'
p60
aF0.42857142857142855
aF1.392156862745098
aa.