(dp0
S'2017-03-09'
p1
(lp2
I66
aI134
aI81
aI34
asS'2017-03-08'
p3
(lp4
I87
aI113
aI83
aI47
asS'2017-04-06'
p5
(lp6
I54
aI146
aI77
aI57
asS'2017-03-20'
p7
(lp8
I80
aI120
aI76
aI37
asS'2017-04-04'
p9
(lp10
I65
aI135
aI69
aI45
asS'2017-03-22'
p11
(lp12
I77
aI123
aI93
aI40
asS'2017-04-02'
p13
(lp14
I62
aI138
aI76
aI46
asS'2017-04-03'
p15
(lp16
I61
aI139
aI70
aI54
asS'2017-03-27'
p17
(lp18
I48
aI152
aI85
aI45
asS'2017-04-01'
p19
(lp20
I76
aI124
aI88
aI48
asS'2017-03-29'
p21
(lp22
I77
aI123
aI75
aI40
asS'2017-03-28'
p23
(lp24
I63
aI136
aI85
aI37
asS'2017-03-21'
p25
(lp26
I63
aI137
aI76
aI54
asS'2017-03-30'
p27
(lp28
I59
aI141
aI78
aI49
asS'2017-04-05'
p29
(lp30
I70
aI130
aI88
aI37
asS'2017-03-25'
p31
(lp32
I91
aI109
aI86
aI25
asS'2017-03-24'
p33
(lp34
I85
aI115
aI85
aI29
asS'2017-03-14'
p35
(lp36
I82
aI118
aI76
aI29
asS'2017-03-15'
p37
(lp38
I71
aI129
aI86
aI38
asS'2017-03-16'
p39
(lp40
I70
aI130
aI87
aI38
asS'2017-03-17'
p41
(lp42
I70
aI130
aI73
aI47
asS'2017-03-10'
p43
(lp44
I77
aI123
aI87
aI35
asS'2017-03-11'
p45
(lp46
I74
aI126
aI86
aI30
asS'2017-03-12'
p47
(lp48
I76
aI124
aI86
aI37
asS'2017-03-13'
p49
(lp50
I74
aI126
aI69
aI44
asS'2017-03-26'
p51
(lp52
I51
aI151
aI85
aI46
asS'2017-03-18'
p53
(lp54
I88
aI112
aI88
aI34
asS'2017-03-19'
p55
(lp56
I60
aI140
aI71
aI51
asS'2017-03-31'
p57
(lp58
I79
aI120
aI78
aI40
asS'2017-03-23'
p59
(lp60
I72
aI128
aI76
aI31
as.