(dp0
S'2017-04-20'
p1
(lp2
F0.42035398230088494
aF2.230769230769231
asS'2017-04-21'
p3
(lp4
F0.4010989010989011
aF3.0
asS'2017-04-22'
p5
(lp6
F0.75
aF1.9090909090909092
asS'2017-04-23'
p7
(lp8
F0.5
aF3.0
asS'2017-04-24'
p9
(lp10
F0.4594594594594595
aF2.125
asS'2017-04-25'
p11
(lp12
F0.32
aF2.4
asS'2017-04-06'
p13
(lp14
F0.463768115942029
aF2.872340425531915
asS'2017-04-07'
p15
(lp16
F0.46774193548387094
aF2.1578947368421053
asS'2017-04-04'
p17
(lp18
F0.5526315789473685
aF2.9444444444444446
asS'2017-04-05'
p19
(lp20
F0.4343065693430657
aF2.9464285714285716
asS'2017-04-02'
p21
(lp22
F1.1578947368421053
aF1.7142857142857142
asS'2017-04-03'
p23
(lp24
F0.5342465753424658
aF4.3
asS'2017-04-01'
p25
(lp26
F0.7647058823529411
aF2.625
asS'2017-04-08'
p27
(lp28
F0.65
aF6.5
asS'2017-04-09'
p29
(lp30
F0.631578947368421
aF1.6
asS'2017-03-31'
p31
(lp32
F0.48514851485148514
aF2.4545454545454546
asS'2017-04-15'
p33
(lp34
F0.9375
aF3.2857142857142856
asS'2017-04-14'
p35
(lp36
F0.42857142857142855
aF1.5217391304347827
asS'2017-04-17'
p37
(lp38
F0.4722222222222222
aF3.3448275862068964
asS'2017-04-16'
p39
(lp40
F0.30952380952380953
aF3.3333333333333335
asS'2017-04-11'
p41
(lp42
F0.42924528301886794
aF2.642857142857143
asS'2017-04-10'
p43
(lp44
F0.6931216931216931
aF2.5
asS'2017-04-13'
p45
(lp46
F0.39094650205761317
aF1.5217391304347827
asS'2017-04-12'
p47
(lp48
F0.3682008368200837
aF2.1052631578947367
asS'2017-04-19'
p49
(lp50
F0.4117647058823529
aF2.25
asS'2017-04-18'
p51
(lp52
F0.6363636363636364
aF2.4210526315789473
as.