(lp0
(lp1
S'2017-04-20'
p2
aF0.42035398230088494
aF2.230769230769231
aa(lp3
S'2017-04-21'
p4
aF0.4010989010989011
aF3.0
aa(lp5
S'2017-04-22'
p6
aF0.75
aF1.9090909090909092
aa(lp7
S'2017-04-23'
p8
aF0.5
aF3.0
aa(lp9
S'2017-04-24'
p10
aF0.4594594594594595
aF2.125
aa(lp11
S'2017-04-25'
p12
aF0.32
aF2.4
aa(lp13
S'2017-04-06'
p14
aF0.463768115942029
aF2.872340425531915
aa(lp15
S'2017-04-07'
p16
aF0.46774193548387094
aF2.1578947368421053
aa(lp17
S'2017-04-04'
p18
aF0.5526315789473685
aF2.9444444444444446
aa(lp19
S'2017-04-05'
p20
aF0.4343065693430657
aF2.9464285714285716
aa(lp21
S'2017-04-02'
p22
aF1.1578947368421053
aF1.7142857142857142
aa(lp23
S'2017-04-03'
p24
aF0.5342465753424658
aF4.3
aa(lp25
S'2017-04-01'
p26
aF0.7647058823529411
aF2.625
aa(lp27
S'2017-04-08'
p28
aF0.65
aF6.5
aa(lp29
S'2017-04-09'
p30
aF0.631578947368421
aF1.6
aa(lp31
S'2017-03-31'
p32
aF0.48514851485148514
aF2.4545454545454546
aa(lp33
S'2017-04-15'
p34
aF0.9375
aF3.2857142857142856
aa(lp35
S'2017-04-14'
p36
aF0.42857142857142855
aF1.5217391304347827
aa(lp37
S'2017-04-17'
p38
aF0.4722222222222222
aF3.3448275862068964
aa(lp39
S'2017-04-16'
p40
aF0.30952380952380953
aF3.3333333333333335
aa(lp41
S'2017-04-11'
p42
aF0.42924528301886794
aF2.642857142857143
aa(lp43
S'2017-04-10'
p44
aF0.6931216931216931
aF2.5
aa(lp45
S'2017-04-13'
p46
aF0.39094650205761317
aF1.5217391304347827
aa(lp47
S'2017-04-12'
p48
aF0.3682008368200837
aF2.1052631578947367
aa(lp49
S'2017-04-19'
p50
aF0.4117647058823529
aF2.25
aa(lp51
S'2017-04-18'
p52
aF0.6363636363636364
aF2.4210526315789473
aa.