(lp0
(lp1
S'2017-04-20'
p2
aI95
aI226
aI116
aI52
aa(lp3
S'2017-04-21'
p4
aI73
aI182
aI96
aI32
aa(lp5
S'2017-04-22'
p6
aI33
aI44
aI21
aI11
aa(lp7
S'2017-04-23'
p8
aI20
aI40
aI24
aI8
aa(lp9
S'2017-04-24'
p10
aI17
aI37
aI17
aI8
aa(lp11
S'2017-04-25'
p12
aI8
aI25
aI12
aI5
aa(lp13
S'2017-04-06'
p14
aI128
aI276
aI135
aI47
aa(lp15
S'2017-04-07'
p16
aI116
aI248
aI123
aI57
aa(lp17
S'2017-04-04'
p18
aI105
aI190
aI106
aI36
aa(lp19
S'2017-04-05'
p20
aI119
aI274
aI165
aI56
aa(lp21
S'2017-04-02'
p22
aI22
aI19
aI12
aI7
aa(lp23
S'2017-04-03'
p24
aI78
aI146
aI86
aI20
aa(lp25
S'2017-04-01'
p26
aI26
aI34
aI21
aI8
aa(lp27
S'2017-04-08'
p28
aI26
aI40
aI26
aI4
aa(lp29
S'2017-04-09'
p30
aI24
aI38
aI16
aI10
aa(lp31
S'2017-03-31'
p32
aI49
aI101
aI54
aI22
aa(lp33
S'2017-04-15'
p34
aI30
aI32
aI23
aI7
aa(lp35
S'2017-04-14'
p36
aI30
aI70
aI35
aI23
aa(lp37
S'2017-04-17'
p38
aI85
aI180
aI97
aI29
aa(lp39
S'2017-04-16'
p40
aI13
aI42
aI20
aI6
aa(lp41
S'2017-04-11'
p42
aI91
aI212
aI111
aI42
aa(lp43
S'2017-04-10'
p44
aI131
aI189
aI95
aI38
aa(lp45
S'2017-04-13'
p46
aI95
aI243
aI105
aI69
aa(lp47
S'2017-04-12'
p48
aI88
aI239
aI120
aI57
aa(lp49
S'2017-04-19'
p50
aI7
aI17
aI9
aI4
aa(lp51
S'2017-04-18'
p52
aI56
aI88
aI46
aI19
aa.