(lp0
(lp1
S'2017-03-22'
p2
aF0.7352941176470589
aF2.125
aa(lp3
S'2017-03-18'
p4
aF0.7142857142857143
aF4.0
aa(lp5
S'2017-03-19'
p6
aF2.0
aF4.0
aa(lp7
S'2017-03-17'
p8
aF0.5
aF6.0
aa(lp9
S'2017-04-20'
p10
aF1.1612903225806452
aF4.5
aa(lp11
S'2017-04-21'
p12
aF0.36363636363636365
aF1.6666666666666667
aa(lp13
S'2017-04-22'
p14
aF0.7037037037037037
aF5.666666666666667
aa(lp15
S'2017-04-23'
p16
aF0.5
aF1.6666666666666667
aa(lp17
S'2017-04-24'
p18
aF0.6923076923076923
aF4.0
aa(lp19
S'2017-04-25'
p20
aF0.3333333333333333
aF1.0
aa(lp21
S'2017-04-06'
p22
aF0.6170212765957447
aF4.333333333333333
aa(lp23
S'2017-04-07'
p24
aF0.35714285714285715
aF5.0
aa(lp25
S'2017-04-04'
p26
aF0.625
aF2.1538461538461537
aa(lp27
S'2017-04-05'
p28
aF0.5625
aF2.7857142857142856
aa(lp29
S'2017-04-02'
p30
aF1.0
aF0.5714285714285714
aa(lp31
S'2017-04-03'
p32
aF0.7872340425531915
aF2.8181818181818183
aa(lp33
S'2017-03-27'
p34
aF0.4576271186440678
aF2.75
aa(lp35
S'2017-04-01'
p36
aF0.4444444444444444
aF3.0
aa(lp37
S'2017-03-29'
p38
aF0.5263157894736842
aF4.714285714285714
aa(lp39
S'2017-03-28'
p40
aF0.5813953488372093
aF6.2
aa(lp41
S'2017-04-08'
p42
aF0.35714285714285715
aF1.2
aa(lp43
S'2017-04-09'
p44
aF0.9090909090909091
aF1.6666666666666667
aa(lp45
S'2017-03-21'
p46
aF0.5555555555555556
aF1.6
aa(lp47
S'2017-03-20'
p48
aF0.7586206896551724
aF3.0
aa(lp49
S'2017-03-30'
p50
aF0.5
aF10.0
aa(lp51
S'2017-03-31'
p52
aF0.6388888888888888
aF2.875
aa(lp53
S'2017-03-25'
p54
aF0.47619047619047616
aF1.3333333333333333
aa(lp55
S'2017-03-24'
p56
aF0.6
aF2.6153846153846154
aa(lp57
S'2017-04-15'
p58
aF0.4666666666666667
aF5.0
aa(lp59
S'2017-04-14'
p60
aF1.25
aF12.0
aa(lp61
S'2017-04-17'
p62
aF0.7346938775510204
aF2.4545454545454546
aa(lp63
S'2017-04-16'
p64
aF0.75
aF5.0
aa(lp65
S'2017-04-11'
p66
aF0.5
aF2.6666666666666665
aa(lp67
S'2017-04-10'
p68
aF0.48717948717948717
aF1.3636363636363635
aa(lp69
S'2017-04-13'
p70
aF0.5714285714285714
aF2.4
aa(lp71
S'2017-04-12'
p72
aF0.475
aF3.3333333333333335
aa(lp73
S'2017-03-26'
p74
aF1.25
aF1.0
aa(lp75
S'2017-04-19'
p76
aF0.6976744186046512
aF2.1
aa(lp77
S'2017-04-18'
p78
aF0.8857142857142857
aF2.888888888888889
aa(lp79
S'2017-03-23'
p80
aF0.5714285714285714
aF1.6764705882352942
aa.