(dp0
S'2017-04-19'
p1
(lp2
I30
aI43
aI21
aI10
asS'2017-04-18'
p3
(lp4
I31
aI35
aI26
aI9
asS'2017-04-20'
p5
(lp6
I36
aI31
aI18
aI4
asS'2017-04-21'
p7
(lp8
I16
aI44
aI20
aI12
asS'2017-04-22'
p9
(lp10
I19
aI27
aI17
aI3
asS'2017-04-23'
p11
(lp12
I5
aI10
aI5
aI3
asS'2017-04-24'
p13
(lp14
I18
aI26
aI20
aI5
asS'2017-04-25'
p15
(lp16
I1
aI3
aI1
aI1
asS'2017-04-06'
p17
(lp18
I29
aI47
aI26
aI6
asS'2017-04-07'
p19
(lp20
I15
aI42
aI20
aI4
asS'2017-04-04'
p21
(lp22
I35
aI56
aI28
aI13
asS'2017-03-22'
p23
(lp24
I25
aI34
aI17
aI8
asS'2017-04-02'
p25
(lp26
I13
aI13
aI4
aI7
asS'2017-04-03'
p27
(lp28
I37
aI47
aI31
aI11
asS'2017-03-27'
p29
(lp30
I27
aI59
aI33
aI12
asS'2017-04-01'
p31
(lp32
I8
aI18
aI9
aI3
asS'2017-03-29'
p33
(lp34
I30
aI57
aI33
aI7
asS'2017-03-28'
p35
(lp36
I25
aI43
aI31
aI5
asS'2017-04-08'
p37
(lp38
I5
aI14
aI6
aI5
asS'2017-04-09'
p39
(lp40
I10
aI11
aI5
aI3
asS'2017-03-21'
p41
(lp42
I25
aI45
aI24
aI15
asS'2017-04-16'
p43
(lp44
I12
aI16
aI15
aI3
asS'2017-03-20'
p45
(lp46
I22
aI29
aI15
aI5
asS'2017-04-17'
p47
(lp48
I36
aI49
aI27
aI11
asS'2017-04-05'
p49
(lp50
I36
aI64
aI39
aI14
asS'2017-03-25'
p51
(lp52
I10
aI21
aI8
aI6
asS'2017-03-24'
p53
(lp54
I39
aI65
aI34
aI13
asS'2017-04-15'
p55
(lp56
I7
aI15
aI10
aI2
asS'2017-04-14'
p57
(lp58
I15
aI12
aI12
aI1
asS'2017-03-30'
p59
(lp60
I19
aI38
aI30
aI3
asS'2017-03-17'
p61
(lp62
I5
aI10
aI6
aI1
asS'2017-04-11'
p63
(lp64
I24
aI48
aI24
aI9
asS'2017-04-10'
p65
(lp66
I19
aI39
aI15
aI11
asS'2017-04-13'
p67
(lp68
I24
aI42
aI24
aI10
asS'2017-04-12'
p69
(lp70
I19
aI40
aI20
aI6
asS'2017-03-26'
p71
(lp72
I10
aI8
aI2
aI2
asS'2017-03-18'
p73
(lp74
I5
aI7
aI4
aI1
asS'2017-03-19'
p75
(lp76
I6
aI3
aI4
aI1
asS'2017-03-31'
p77
(lp78
I23
aI36
aI23
aI8
asS'2017-03-23'
p79
(lp80
I56
aI98
aI57
aI34
as.