(dp0
S'2017-04-19'
p1
(lp2
F0.6976744186046512
aF2.1
asS'2017-04-18'
p3
(lp4
F0.8857142857142857
aF2.888888888888889
asS'2017-04-20'
p5
(lp6
F1.1612903225806452
aF4.5
asS'2017-04-21'
p7
(lp8
F0.36363636363636365
aF1.6666666666666667
asS'2017-04-22'
p9
(lp10
F0.7037037037037037
aF5.666666666666667
asS'2017-04-23'
p11
(lp12
F0.5
aF1.6666666666666667
asS'2017-04-24'
p13
(lp14
F0.6923076923076923
aF4.0
asS'2017-04-25'
p15
(lp16
F0.3333333333333333
aF1.0
asS'2017-04-06'
p17
(lp18
F0.6170212765957447
aF4.333333333333333
asS'2017-04-07'
p19
(lp20
F0.35714285714285715
aF5.0
asS'2017-04-04'
p21
(lp22
F0.625
aF2.1538461538461537
asS'2017-03-22'
p23
(lp24
F0.7352941176470589
aF2.125
asS'2017-04-02'
p25
(lp26
F1.0
aF0.5714285714285714
asS'2017-04-03'
p27
(lp28
F0.7872340425531915
aF2.8181818181818183
asS'2017-03-27'
p29
(lp30
F0.4576271186440678
aF2.75
asS'2017-04-01'
p31
(lp32
F0.4444444444444444
aF3.0
asS'2017-03-29'
p33
(lp34
F0.5263157894736842
aF4.714285714285714
asS'2017-03-28'
p35
(lp36
F0.5813953488372093
aF6.2
asS'2017-04-08'
p37
(lp38
F0.35714285714285715
aF1.2
asS'2017-04-09'
p39
(lp40
F0.9090909090909091
aF1.6666666666666667
asS'2017-03-21'
p41
(lp42
F0.5555555555555556
aF1.6
asS'2017-04-16'
p43
(lp44
F0.75
aF5.0
asS'2017-03-20'
p45
(lp46
F0.7586206896551724
aF3.0
asS'2017-04-17'
p47
(lp48
F0.7346938775510204
aF2.4545454545454546
asS'2017-04-05'
p49
(lp50
F0.5625
aF2.7857142857142856
asS'2017-03-25'
p51
(lp52
F0.47619047619047616
aF1.3333333333333333
asS'2017-03-24'
p53
(lp54
F0.6
aF2.6153846153846154
asS'2017-04-15'
p55
(lp56
F0.4666666666666667
aF5.0
asS'2017-04-14'
p57
(lp58
F1.25
aF12.0
asS'2017-03-30'
p59
(lp60
F0.5
aF10.0
asS'2017-03-17'
p61
(lp62
F0.5
aF6.0
asS'2017-04-11'
p63
(lp64
F0.5
aF2.6666666666666665
asS'2017-04-10'
p65
(lp66
F0.48717948717948717
aF1.3636363636363635
asS'2017-04-13'
p67
(lp68
F0.5714285714285714
aF2.4
asS'2017-04-12'
p69
(lp70
F0.475
aF3.3333333333333335
asS'2017-03-26'
p71
(lp72
F1.25
aF1.0
asS'2017-03-18'
p73
(lp74
F0.7142857142857143
aF4.0
asS'2017-03-19'
p75
(lp76
F2.0
aF4.0
asS'2017-03-31'
p77
(lp78
F0.6388888888888888
aF2.875
asS'2017-03-23'
p79
(lp80
F0.5714285714285714
aF1.6764705882352942
as.