(dp0
S'2017-03-18'
p1
(lp2
F0.7
aF8.0
asS'2017-04-18'
p3
(lp4
F0.4375
aF1.25
asS'2017-04-05'
p5
(lp6
F0.9333333333333333
aF13.5
asS'2017-04-06'
p7
(lp8
F0.391304347826087
aF2.5
asS'2017-04-07'
p9
(lp10
F0.5652173913043478
aF2.8
asS'2017-04-04'
p11
(lp12
F0.78125
aF12.5
asS'2017-03-22'
p13
(lp14
F0.3333333333333333
aF2.4
asS'2017-04-02'
p15
(lp16
F1.0
aF3.0
asS'2017-04-03'
p17
(lp18
F0.7037037037037037
aF6.25
asS'2017-03-27'
p19
(lp20
F0.6578947368421053
aF2.25
asS'2017-04-01'
p21
(lp22
F0.4166666666666667
aF3.5
asS'2017-03-29'
p23
(lp24
F0.6666666666666666
aF1.1818181818181819
asS'2017-03-28'
p25
(lp26
F0.5185185185185185
aF8.0
asS'2017-04-08'
p27
(lp28
F2.25
aF1.0
asS'2017-04-09'
p29
(lp30
F0.6666666666666666
aF0.0
asS'2017-03-21'
p31
(lp32
F0.4523809523809524
aF2.5
asS'2017-03-20'
p33
(lp34
F0.7777777777777778
aF4.0
asS'2017-04-17'
p35
(lp36
F0.3333333333333333
aF3.25
asS'2017-03-17'
p37
(lp38
F0.6666666666666666
aF0.0
asS'2017-03-25'
p39
(lp40
F0.9
aF2.3333333333333335
asS'2017-03-24'
p41
(lp42
F0.627906976744186
aF2.6666666666666665
asS'2017-04-15'
p43
(lp44
F1.3333333333333333
aF2.0
asS'2017-04-14'
p45
(lp46
F1.5454545454545454
aF2.6666666666666665
asS'2017-03-30'
p47
(lp48
F0.6557377049180327
aF2.625
asS'2017-03-31'
p49
(lp50
F0.8571428571428571
aF3.1666666666666665
asS'2017-04-11'
p51
(lp52
F0.5897435897435898
aF3.3333333333333335
asS'2017-04-10'
p53
(lp54
F0.625
aF2.5555555555555554
asS'2017-04-13'
p55
(lp56
F1.0909090909090908
aF6.666666666666667
asS'2017-04-12'
p57
(lp58
F0.625
aF4.5
asS'2017-03-26'
p59
(lp60
F0.3333333333333333
aF7.0
asS'2017-04-16'
p61
(lp62
F0.8888888888888888
aF9.0
asS'2017-03-19'
p63
(lp64
F1.2857142857142858
aF0.0
asS'2017-03-23'
p65
(lp66
F1.0909090909090908
aF3.0
as.