(lp0
(lp1
S'2017-03-22'
p2
aI17
aI51
aI24
aI10
aa(lp3
S'2017-03-19'
p4
aI9
aI7
aI0
aI2
aa(lp5
S'2017-03-17'
p6
aI2
aI3
aI0
aI0
aa(lp7
S'2017-04-06'
p8
aI18
aI46
aI20
aI8
aa(lp9
S'2017-04-07'
p10
aI13
aI23
aI14
aI5
aa(lp11
S'2017-04-04'
p12
aI25
aI32
aI25
aI2
aa(lp13
S'2017-04-05'
p14
aI28
aI30
aI27
aI2
aa(lp15
S'2017-04-02'
p16
aI9
aI9
aI3
aI1
aa(lp17
S'2017-04-03'
p18
aI19
aI27
aI25
aI4
aa(lp19
S'2017-03-27'
p20
aI25
aI38
aI18
aI8
aa(lp21
S'2017-04-01'
p22
aI5
aI12
aI7
aI2
aa(lp23
S'2017-03-29'
p24
aI20
aI30
aI13
aI11
aa(lp25
S'2017-03-28'
p26
aI14
aI27
aI16
aI2
aa(lp27
S'2017-04-08'
p28
aI9
aI4
aI3
aI3
aa(lp29
S'2017-04-09'
p30
aI2
aI3
aI0
aI1
aa(lp31
S'2017-03-21'
p32
aI19
aI42
aI20
aI8
aa(lp33
S'2017-03-20'
p34
aI28
aI36
aI24
aI6
aa(lp35
S'2017-03-30'
p36
aI40
aI61
aI42
aI16
aa(lp37
S'2017-03-31'
p38
aI24
aI28
aI19
aI6
aa(lp39
S'2017-03-25'
p40
aI9
aI10
aI7
aI3
aa(lp41
S'2017-03-24'
p42
aI27
aI43
aI24
aI9
aa(lp43
S'2017-04-15'
p44
aI8
aI6
aI6
aI3
aa(lp45
S'2017-04-14'
p46
aI17
aI11
aI8
aI3
aa(lp47
S'2017-04-17'
p48
aI12
aI36
aI13
aI4
aa(lp49
S'2017-04-16'
p50
aI8
aI9
aI9
aI1
aa(lp51
S'2017-04-11'
p52
aI23
aI39
aI20
aI6
aa(lp53
S'2017-04-10'
p54
aI25
aI40
aI23
aI9
aa(lp55
S'2017-04-13'
p56
aI24
aI22
aI20
aI3
aa(lp57
S'2017-04-12'
p58
aI20
aI32
aI18
aI4
aa(lp59
S'2017-03-26'
p60
aI4
aI12
aI7
aI0
aa(lp61
S'2017-03-18'
p62
aI7
aI10
aI8
aI0
aa(lp63
S'2017-04-18'
p64
aI7
aI16
aI5
aI4
aa(lp65
S'2017-03-23'
p66
aI24
aI22
aI12
aI4
aa.