(dp0
S'2017-04-18'
p1
(lp2
F0.3392857142857143
aF1.7333333333333334
asS'2017-04-05'
p3
(lp4
F0.6
aF2.0
asS'2017-04-06'
p5
(lp6
F2.0
aF0.0
asS'2017-04-07'
p7
(lp8
F1.0
aF0.0
asS'2017-04-04'
p9
(lp10
F0.3
aF5.0
asS'2017-03-22'
p11
(lp12
F0.4444444444444444
aF4.5
asS'2017-03-25'
p13
(lp14
F2.0
aF1.0
asS'2017-03-24'
p15
(lp16
F0.4
aF4.0
asS'2017-03-27'
p17
(lp18
F0.3125
aF1.4166666666666667
asS'2017-03-26'
p19
(lp20
F0.14285714285714285
aF1.3333333333333333
asS'2017-03-29'
p21
(lp22
F0.5555555555555556
aF6.0
asS'2017-03-28'
p23
(lp24
F0.25
aF1.25
asS'2017-04-08'
p25
(lp26
F1.0
aF0.0
asS'2017-03-21'
p27
(lp28
F0.8333333333333334
aF1.0
asS'2017-03-20'
p29
(lp30
F0.2857142857142857
aF0.5
asS'2017-04-17'
p31
(lp32
F0.41621621621621624
aF1.7551020408163265
asS'2017-03-17'
p33
(lp34
F0.16666666666666666
aF2.0
asS'2017-04-15'
p35
(lp36
F0.3469387755102041
aF1.4545454545454546
asS'2017-04-14'
p37
(lp38
F0.34782608695652173
aF2.263157894736842
asS'2017-03-30'
p39
(lp40
F0.75
aF3.0
asS'2017-03-31'
p41
(lp42
F2.0
aF2.0
asS'2017-04-11'
p43
(lp44
F0.3732394366197183
aF1.9014084507042253
asS'2017-04-10'
p45
(lp46
F0.32
aF1.0298507462686568
asS'2017-04-13'
p47
(lp48
F0.312280701754386
aF1.4301075268817205
asS'2017-04-12'
p49
(lp50
F0.2638888888888889
aF1.5057471264367817
asS'2017-04-16'
p51
(lp52
F0.4473684210526316
aF2.0
asS'2017-03-19'
p53
(lp54
F1.0
aF1.0
asS'2017-03-16'
p55
(lp56
F0.75
aF6.0
asS'2017-03-23'
p57
(lp58
F0.5
aF3.0
as.