(lp0
(lp1
S'2017-03-22'
p2
aI4
aI9
aI9
aI2
aa(lp3
S'2017-03-19'
p4
aI1
aI0
aI1
aI0
aa(lp5
S'2017-03-17'
p6
aI2
aI12
aI2
aI1
aa(lp7
S'2017-04-06'
p8
aI2
aI1
aI0
aI1
aa(lp9
S'2017-04-07'
p10
aI1
aI1
aI0
aI1
aa(lp11
S'2017-04-04'
p12
aI3
aI10
aI5
aI0
aa(lp13
S'2017-04-05'
p14
aI3
aI5
aI2
aI0
aa(lp15
S'2017-03-25'
p16
aI2
aI0
aI1
aI0
aa(lp17
S'2017-03-24'
p18
aI2
aI5
aI4
aI1
aa(lp19
S'2017-03-27'
p20
aI10
aI32
aI17
aI12
aa(lp21
S'2017-03-26'
p22
aI1
aI7
aI4
aI3
aa(lp23
S'2017-03-29'
p24
aI5
aI9
aI6
aI1
aa(lp25
S'2017-03-28'
p26
aI3
aI12
aI5
aI4
aa(lp27
S'2017-04-08'
p28
aI1
aI0
aI0
aI0
aa(lp29
S'2017-03-21'
p30
aI5
aI6
aI3
aI3
aa(lp31
S'2017-03-20'
p32
aI2
aI7
aI1
aI2
aa(lp33
S'2017-03-30'
p34
aI3
aI4
aI3
aI1
aa(lp35
S'2017-03-31'
p36
aI2
aI1
aI2
aI0
aa(lp37
S'2017-04-15'
p38
aI17
aI49
aI16
aI11
aa(lp39
S'2017-04-14'
p40
aI32
aI92
aI43
aI19
aa(lp41
S'2017-04-17'
p42
aI77
aI185
aI86
aI49
aa(lp43
S'2017-04-16'
p44
aI17
aI38
aI20
aI10
aa(lp45
S'2017-04-11'
p46
aI106
aI284
aI135
aI71
aa(lp47
S'2017-04-10'
p48
aI56
aI175
aI69
aI67
aa(lp49
S'2017-04-13'
p50
aI89
aI285
aI133
aI93
aa(lp51
S'2017-04-12'
p52
aI76
aI288
aI131
aI87
aa(lp53
S'2017-04-18'
p54
aI38
aI112
aI52
aI30
aa(lp55
S'2017-03-16'
p56
aI6
aI8
aI6
aI1
aa(lp57
S'2017-03-23'
p58
aI3
aI6
aI3
aI1
aa.