(dp0
S'2017-04-18'
p1
(lp2
I38
aI112
aI52
aI30
asS'2017-04-05'
p3
(lp4
I3
aI5
aI2
aI0
asS'2017-04-06'
p5
(lp6
I2
aI1
aI0
aI1
asS'2017-04-07'
p7
(lp8
I1
aI1
aI0
aI1
asS'2017-04-04'
p9
(lp10
I3
aI10
aI5
aI0
asS'2017-03-22'
p11
(lp12
I4
aI9
aI9
aI2
asS'2017-03-25'
p13
(lp14
I2
aI0
aI1
aI0
asS'2017-03-24'
p15
(lp16
I2
aI5
aI4
aI1
asS'2017-03-27'
p17
(lp18
I10
aI32
aI17
aI12
asS'2017-03-26'
p19
(lp20
I1
aI7
aI4
aI3
asS'2017-03-29'
p21
(lp22
I5
aI9
aI6
aI1
asS'2017-03-28'
p23
(lp24
I3
aI12
aI5
aI4
asS'2017-04-08'
p25
(lp26
I1
aI0
aI0
aI0
asS'2017-03-21'
p27
(lp28
I5
aI6
aI3
aI3
asS'2017-03-20'
p29
(lp30
I2
aI7
aI1
aI2
asS'2017-04-17'
p31
(lp32
I77
aI185
aI86
aI49
asS'2017-03-17'
p33
(lp34
I2
aI12
aI2
aI1
asS'2017-04-15'
p35
(lp36
I17
aI49
aI16
aI11
asS'2017-04-14'
p37
(lp38
I32
aI92
aI43
aI19
asS'2017-03-30'
p39
(lp40
I3
aI4
aI3
aI1
asS'2017-03-31'
p41
(lp42
I2
aI1
aI2
aI0
asS'2017-04-11'
p43
(lp44
I106
aI284
aI135
aI71
asS'2017-04-10'
p45
(lp46
I56
aI175
aI69
aI67
asS'2017-04-13'
p47
(lp48
I89
aI285
aI133
aI93
asS'2017-04-12'
p49
(lp50
I76
aI288
aI131
aI87
asS'2017-04-16'
p51
(lp52
I17
aI38
aI20
aI10
asS'2017-03-19'
p53
(lp54
I1
aI0
aI1
aI0
asS'2017-03-16'
p55
(lp56
I6
aI8
aI6
aI1
asS'2017-03-23'
p57
(lp58
I3
aI6
aI3
aI1
as.