(lp0
(lp1
S'2017-03-22'
p2
aF0.4444444444444444
aF4.5
aa(lp3
S'2017-03-19'
p4
aF1.0
aF1.0
aa(lp5
S'2017-03-17'
p6
aF0.16666666666666666
aF2.0
aa(lp7
S'2017-04-06'
p8
aF2.0
aF0.0
aa(lp9
S'2017-04-07'
p10
aF1.0
aF0.0
aa(lp11
S'2017-04-04'
p12
aF0.3
aF5.0
aa(lp13
S'2017-04-05'
p14
aF0.6
aF2.0
aa(lp15
S'2017-03-25'
p16
aF2.0
aF1.0
aa(lp17
S'2017-03-24'
p18
aF0.4
aF4.0
aa(lp19
S'2017-03-27'
p20
aF0.3125
aF1.4166666666666667
aa(lp21
S'2017-03-26'
p22
aF0.14285714285714285
aF1.3333333333333333
aa(lp23
S'2017-03-29'
p24
aF0.5555555555555556
aF6.0
aa(lp25
S'2017-03-28'
p26
aF0.25
aF1.25
aa(lp27
S'2017-04-08'
p28
aF1.0
aF0.0
aa(lp29
S'2017-03-21'
p30
aF0.8333333333333334
aF1.0
aa(lp31
S'2017-03-20'
p32
aF0.2857142857142857
aF0.5
aa(lp33
S'2017-03-30'
p34
aF0.75
aF3.0
aa(lp35
S'2017-03-31'
p36
aF2.0
aF2.0
aa(lp37
S'2017-04-15'
p38
aF0.3469387755102041
aF1.4545454545454546
aa(lp39
S'2017-04-14'
p40
aF0.34782608695652173
aF2.263157894736842
aa(lp41
S'2017-04-17'
p42
aF0.41621621621621624
aF1.7551020408163265
aa(lp43
S'2017-04-16'
p44
aF0.4473684210526316
aF2.0
aa(lp45
S'2017-04-11'
p46
aF0.3732394366197183
aF1.9014084507042253
aa(lp47
S'2017-04-10'
p48
aF0.32
aF1.0298507462686568
aa(lp49
S'2017-04-13'
p50
aF0.312280701754386
aF1.4301075268817205
aa(lp51
S'2017-04-12'
p52
aF0.2638888888888889
aF1.5057471264367817
aa(lp53
S'2017-04-18'
p54
aF0.3392857142857143
aF1.7333333333333334
aa(lp55
S'2017-03-16'
p56
aF0.75
aF6.0
aa(lp57
S'2017-03-23'
p58
aF0.5
aF3.0
aa.